EXPORTS
    _ZN5boost13serialization16singleton_module4lockEv @1
    _ZN5boost13serialization16singleton_module6unlockEv @2
    _ZN5boost13serialization16singleton_module8get_lockEv @3
    _ZN5boost13serialization16singleton_module9is_lockedEv @4
    _ZN5boost13serialization18void_cast_registerIN4Core12FMTageboundsENS2_9FMTboundsIiEEEERKNS0_16void_cast_detail11void_casterEPKT_PKT0_ @5
    _ZN5boost13serialization18void_cast_registerIN4Core12FMTlifespansENS2_7FMTlistIiEEEERKNS0_16void_cast_detail11void_casterEPKT_PKT0_ @6
    _ZN5boost13serialization18void_cast_registerIN4Core12FMTperboundsENS2_9FMTboundsIiEEEERKNS0_16void_cast_detail11void_casterEPKT_PKT0_ @7
    _ZN5boost13serialization18void_cast_registerIN4Core12FMTyldboundsENS2_9FMTboundsIdEEEERKNS0_16void_cast_detail11void_casterEPKT_PKT0_ @8
    _ZN5boost13serialization18void_cast_registerIN4Core13FMTconstraintENS2_7FMTspecEEERKNS0_16void_cast_detail11void_casterEPKT_PKT0_ @9
    _ZN5boost13serialization18void_cast_registerIN4Core13FMTconstraintENS2_9FMToutputEEERKNS0_16void_cast_detail11void_casterEPKT_PKT0_ @10
    _ZN5boost13serialization18void_cast_registerIN4Core13FMTlockboundsENS2_9FMTboundsIiEEEERKNS0_16void_cast_detail11void_casterEPKT_PKT0_ @11
    _ZN5boost13serialization18void_cast_registerIN4Core13FMTtransitionENS2_7FMTlistINS2_7FMTforkEEEEERKNS0_16void_cast_detail11void_casterEPKT_PKT0_ @12
    _ZN5boost13serialization18void_cast_registerIN4Core15FMToutputsourceENS2_7FMTspecEEERKNS0_16void_cast_detail11void_casterEPKT_PKT0_ @13
    _ZN5boost13serialization18void_cast_registerIN4Core17FMTtransitionmaskENS2_13FMTmaskfilterEEERKNS0_16void_cast_detail11void_casterEPKT_PKT0_ @14
    _ZN5boost13serialization18void_cast_registerIN4Core17FMTtransitionmaskENS2_7FMTspecEEERKNS0_16void_cast_detail11void_casterEPKT_PKT0_ @15
    _ZN5boost13serialization18void_cast_registerIN4Core20FMTactualdevelopmentENS2_14FMTdevelopmentEEERKNS0_16void_cast_detail11void_casterEPKT_PKT0_ @16
    _ZN5boost13serialization18void_cast_registerIN4Core7FMTforkENS2_7FMTspecEEERKNS0_16void_cast_detail11void_casterEPKT_PKT0_ @17
    _ZN5boost13serialization18void_cast_registerIN4Core9FMTactionENS2_7FMTlistINS2_7FMTspecEEEEERKNS0_16void_cast_detail11void_casterEPKT_PKT0_ @18
    _ZN5boost13serialization18void_cast_registerIN4Core9FMTyieldsENS2_7FMTlistINS2_15FMTyieldhandlerEEEEERKNS0_16void_cast_detail11void_casterEPKT_PKT0_ @19
    _ZN5boost13serialization18void_cast_registerIN6Models10FMTlpmodelENS2_11FMTlpsolverEEERKNS0_16void_cast_detail11void_casterEPKT_PKT0_ @20
    _ZN5boost13serialization18void_cast_registerIN6Models10FMTlpmodelENS2_8FMTmodelEEERKNS0_16void_cast_detail11void_casterEPKT_PKT0_ @21
    _ZN5boost13serialization18void_cast_registerIN6Models11FMTnssmodelENS2_8FMTmodelEEERKNS0_16void_cast_detail11void_casterEPKT_PKT0_ @22
    _ZN5boost13serialization18void_cast_registerIN6Models11FMTsesmodelENS2_8FMTmodelEEERKNS0_16void_cast_detail11void_casterEPKT_PKT0_ @23
    _ZN5boost13serialization18void_cast_registerIN7Spatial11FMTseseventIN4Core14FMTdevelopmentEEENS2_8FMTeventEEERKNS0_16void_cast_detail11void_casterEPKT_PKT0_ @24
    _ZN5boost13serialization18void_cast_registerIN7Spatial16FMTspatialactionEN4Core9FMTactionEEERKNS0_16void_cast_detail11void_casterEPKT_PKT0_ @25
    _ZN5boost13serialization18void_cast_registerIN7Spatial9FMTforestENS2_8FMTlayerIN4Core14FMTdevelopmentEEEEERKNS0_16void_cast_detail11void_casterEPKT_PKT0_ @26
    _ZN5boost13serialization9singletonINS0_16void_cast_detail21void_caster_primitiveIN4Core12FMTageboundsENS4_9FMTboundsIiEEEEE18get_const_instanceEv @27
    _ZN5boost13serialization9singletonINS0_16void_cast_detail21void_caster_primitiveIN4Core12FMTlifespansENS4_7FMTlistIiEEEEE18get_const_instanceEv @28
    _ZN5boost13serialization9singletonINS0_16void_cast_detail21void_caster_primitiveIN4Core12FMTperboundsENS4_9FMTboundsIiEEEEE18get_const_instanceEv @29
    _ZN5boost13serialization9singletonINS0_16void_cast_detail21void_caster_primitiveIN4Core12FMTyldboundsENS4_9FMTboundsIdEEEEE18get_const_instanceEv @30
    _ZN5boost13serialization9singletonINS0_16void_cast_detail21void_caster_primitiveIN4Core13FMTconstraintENS4_7FMTspecEEEE18get_const_instanceEv @31
    _ZN5boost13serialization9singletonINS0_16void_cast_detail21void_caster_primitiveIN4Core13FMTconstraintENS4_9FMToutputEEEE18get_const_instanceEv @32
    _ZN5boost13serialization9singletonINS0_16void_cast_detail21void_caster_primitiveIN4Core13FMTlockboundsENS4_9FMTboundsIiEEEEE18get_const_instanceEv @33
    _ZN5boost13serialization9singletonINS0_16void_cast_detail21void_caster_primitiveIN4Core13FMTtransitionENS4_7FMTlistINS4_7FMTforkEEEEEE18get_const_instanceEv @34
    _ZN5boost13serialization9singletonINS0_16void_cast_detail21void_caster_primitiveIN4Core15FMToutputsourceENS4_7FMTspecEEEE18get_const_instanceEv @35
    _ZN5boost13serialization9singletonINS0_16void_cast_detail21void_caster_primitiveIN4Core17FMTtransitionmaskENS4_13FMTmaskfilterEEEE18get_const_instanceEv @36
    _ZN5boost13serialization9singletonINS0_16void_cast_detail21void_caster_primitiveIN4Core17FMTtransitionmaskENS4_7FMTspecEEEE18get_const_instanceEv @37
    _ZN5boost13serialization9singletonINS0_16void_cast_detail21void_caster_primitiveIN4Core20FMTactualdevelopmentENS4_14FMTdevelopmentEEEE18get_const_instanceEv @38
    _ZN5boost13serialization9singletonINS0_16void_cast_detail21void_caster_primitiveIN4Core7FMTforkENS4_7FMTspecEEEE18get_const_instanceEv @39
    _ZN5boost13serialization9singletonINS0_16void_cast_detail21void_caster_primitiveIN4Core9FMTactionENS4_7FMTlistINS4_7FMTspecEEEEEE18get_const_instanceEv @40
    _ZN5boost13serialization9singletonINS0_16void_cast_detail21void_caster_primitiveIN4Core9FMTyieldsENS4_7FMTlistINS4_15FMTyieldhandlerEEEEEE18get_const_instanceEv @41
    _ZN5boost13serialization9singletonINS0_16void_cast_detail21void_caster_primitiveIN6Models10FMTlpmodelENS4_11FMTlpsolverEEEE18get_const_instanceEv @42
    _ZN5boost13serialization9singletonINS0_16void_cast_detail21void_caster_primitiveIN6Models10FMTlpmodelENS4_8FMTmodelEEEE18get_const_instanceEv @43
    _ZN5boost13serialization9singletonINS0_16void_cast_detail21void_caster_primitiveIN6Models11FMTnssmodelENS4_8FMTmodelEEEE18get_const_instanceEv @44
    _ZN5boost13serialization9singletonINS0_16void_cast_detail21void_caster_primitiveIN6Models11FMTsesmodelENS4_8FMTmodelEEEE18get_const_instanceEv @45
    _ZN5boost13serialization9singletonINS0_16void_cast_detail21void_caster_primitiveIN7Spatial11FMTseseventIN4Core14FMTdevelopmentEEENS4_8FMTeventEEEE18get_const_instanceEv @46
    _ZN5boost13serialization9singletonINS0_16void_cast_detail21void_caster_primitiveIN7Spatial16FMTspatialactionEN4Core9FMTactionEEEE18get_const_instanceEv @47
    _ZN5boost13serialization9singletonINS0_16void_cast_detail21void_caster_primitiveIN7Spatial9FMTforestENS4_8FMTlayerIN4Core14FMTdevelopmentEEEEEE18get_const_instanceEv @48
    _ZN5boost13serialization9singletonINS0_25extended_type_info_typeidIN10Heuristics16FMToperatingareaEEEE18get_const_instanceEv @49
    _ZN5boost13serialization9singletonINS0_25extended_type_info_typeidIN10Heuristics16FMToperatingareaEEEEC1Ev @50
    _ZN5boost13serialization9singletonINS0_25extended_type_info_typeidIN10Heuristics16FMToperatingareaEEEEC2Ev @51
    _ZN5boost13serialization9singletonINS0_25extended_type_info_typeidIN4Core11FMToperatorEEEE18get_const_instanceEv @52
    _ZN5boost13serialization9singletonINS0_25extended_type_info_typeidIN4Core11FMToperatorEEEEC1Ev @53
    _ZN5boost13serialization9singletonINS0_25extended_type_info_typeidIN4Core11FMToperatorEEEEC2Ev @54
    _ZN5boost13serialization9singletonINS0_25extended_type_info_typeidIN4Core11FMTscheduleEEEE18get_const_instanceEv @55
    _ZN5boost13serialization9singletonINS0_25extended_type_info_typeidIN4Core11FMTscheduleEEEEC1Ev @56
    _ZN5boost13serialization9singletonINS0_25extended_type_info_typeidIN4Core11FMTscheduleEEEEC2Ev @57
    _ZN5boost13serialization9singletonINS0_25extended_type_info_typeidIN4Core12FMTageboundsEEEE18get_const_instanceEv @58
    _ZN5boost13serialization9singletonINS0_25extended_type_info_typeidIN4Core12FMTageboundsEEEEC1Ev @59
    _ZN5boost13serialization9singletonINS0_25extended_type_info_typeidIN4Core12FMTageboundsEEEEC2Ev @60
    _ZN5boost13serialization9singletonINS0_25extended_type_info_typeidIN4Core12FMTlifespansEEEE18get_const_instanceEv @61
    _ZN5boost13serialization9singletonINS0_25extended_type_info_typeidIN4Core12FMTlifespansEEEEC1Ev @62
    _ZN5boost13serialization9singletonINS0_25extended_type_info_typeidIN4Core12FMTlifespansEEEEC2Ev @63
    _ZN5boost13serialization9singletonINS0_25extended_type_info_typeidIN4Core12FMTperboundsEEEE18get_const_instanceEv @64
    _ZN5boost13serialization9singletonINS0_25extended_type_info_typeidIN4Core12FMTperboundsEEEEC1Ev @65
    _ZN5boost13serialization9singletonINS0_25extended_type_info_typeidIN4Core12FMTperboundsEEEEC2Ev @66
    _ZN5boost13serialization9singletonINS0_25extended_type_info_typeidIN4Core12FMTyldboundsEEEE18get_const_instanceEv @67
    _ZN5boost13serialization9singletonINS0_25extended_type_info_typeidIN4Core12FMTyldboundsEEEEC1Ev @68
    _ZN5boost13serialization9singletonINS0_25extended_type_info_typeidIN4Core12FMTyldboundsEEEEC2Ev @69
    _ZN5boost13serialization9singletonINS0_25extended_type_info_typeidIN4Core13FMTconstraintEEEE18get_const_instanceEv @70
    _ZN5boost13serialization9singletonINS0_25extended_type_info_typeidIN4Core13FMTconstraintEEEEC1Ev @71
    _ZN5boost13serialization9singletonINS0_25extended_type_info_typeidIN4Core13FMTconstraintEEEEC2Ev @72
    _ZN5boost13serialization9singletonINS0_25extended_type_info_typeidIN4Core13FMTlockboundsEEEE18get_const_instanceEv @73
    _ZN5boost13serialization9singletonINS0_25extended_type_info_typeidIN4Core13FMTlockboundsEEEEC1Ev @74
    _ZN5boost13serialization9singletonINS0_25extended_type_info_typeidIN4Core13FMTlockboundsEEEEC2Ev @75
    _ZN5boost13serialization9singletonINS0_25extended_type_info_typeidIN4Core13FMTmaskfilterEEEE18get_const_instanceEv @76
    _ZN5boost13serialization9singletonINS0_25extended_type_info_typeidIN4Core13FMTmaskfilterEEEEC1Ev @77
    _ZN5boost13serialization9singletonINS0_25extended_type_info_typeidIN4Core13FMTmaskfilterEEEEC2Ev @78
    _ZN5boost13serialization9singletonINS0_25extended_type_info_typeidIN4Core13FMTtransitionEEEE18get_const_instanceEv @79
    _ZN5boost13serialization9singletonINS0_25extended_type_info_typeidIN4Core13FMTtransitionEEEEC1Ev @80
    _ZN5boost13serialization9singletonINS0_25extended_type_info_typeidIN4Core13FMTtransitionEEEEC2Ev @81
    _ZN5boost13serialization9singletonINS0_25extended_type_info_typeidIN4Core14FMTdevelopmentEEEE18get_const_instanceEv @82
    _ZN5boost13serialization9singletonINS0_25extended_type_info_typeidIN4Core14FMTdevelopmentEEEEC1Ev @83
    _ZN5boost13serialization9singletonINS0_25extended_type_info_typeidIN4Core14FMTdevelopmentEEEEC2Ev @84
    _ZN5boost13serialization9singletonINS0_25extended_type_info_typeidIN4Core15FMToutputsourceEEEE18get_const_instanceEv @85
    _ZN5boost13serialization9singletonINS0_25extended_type_info_typeidIN4Core15FMToutputsourceEEEEC1Ev @86
    _ZN5boost13serialization9singletonINS0_25extended_type_info_typeidIN4Core15FMToutputsourceEEEEC2Ev @87
    _ZN5boost13serialization9singletonINS0_25extended_type_info_typeidIN4Core15FMTyieldhandlerEEEE18get_const_instanceEv @88
    _ZN5boost13serialization9singletonINS0_25extended_type_info_typeidIN4Core15FMTyieldhandlerEEEEC1Ev @89
    _ZN5boost13serialization9singletonINS0_25extended_type_info_typeidIN4Core15FMTyieldhandlerEEEEC2Ev @90
    _ZN5boost13serialization9singletonINS0_25extended_type_info_typeidIN4Core17FMTtransitionmaskEEEE18get_const_instanceEv @91
    _ZN5boost13serialization9singletonINS0_25extended_type_info_typeidIN4Core17FMTtransitionmaskEEEEC1Ev @92
    _ZN5boost13serialization9singletonINS0_25extended_type_info_typeidIN4Core17FMTtransitionmaskEEEEC2Ev @93
    _ZN5boost13serialization9singletonINS0_25extended_type_info_typeidIN4Core20FMTactualdevelopmentEEEE18get_const_instanceEv @94
    _ZN5boost13serialization9singletonINS0_25extended_type_info_typeidIN4Core20FMTactualdevelopmentEEEEC1Ev @95
    _ZN5boost13serialization9singletonINS0_25extended_type_info_typeidIN4Core20FMTactualdevelopmentEEEEC2Ev @96
    _ZN5boost13serialization9singletonINS0_25extended_type_info_typeidIN4Core7FMTdataEEEE18get_const_instanceEv @97
    _ZN5boost13serialization9singletonINS0_25extended_type_info_typeidIN4Core7FMTdataEEEEC1Ev @98
    _ZN5boost13serialization9singletonINS0_25extended_type_info_typeidIN4Core7FMTdataEEEEC2Ev @99
    _ZN5boost13serialization9singletonINS0_25extended_type_info_typeidIN4Core7FMTforkEEEE18get_const_instanceEv @100
    _ZN5boost13serialization9singletonINS0_25extended_type_info_typeidIN4Core7FMTforkEEEEC1Ev @101
    _ZN5boost13serialization9singletonINS0_25extended_type_info_typeidIN4Core7FMTforkEEEEC2Ev @102
    _ZN5boost13serialization9singletonINS0_25extended_type_info_typeidIN4Core7FMTlistINS3_15FMTyieldhandlerEEEEEE18get_const_instanceEv @103
    _ZN5boost13serialization9singletonINS0_25extended_type_info_typeidIN4Core7FMTlistINS3_15FMTyieldhandlerEEEEEEC1Ev @104
    _ZN5boost13serialization9singletonINS0_25extended_type_info_typeidIN4Core7FMTlistINS3_15FMTyieldhandlerEEEEEEC2Ev @105
    _ZN5boost13serialization9singletonINS0_25extended_type_info_typeidIN4Core7FMTlistINS3_7FMTforkEEEEEE18get_const_instanceEv @106
    _ZN5boost13serialization9singletonINS0_25extended_type_info_typeidIN4Core7FMTlistINS3_7FMTforkEEEEEEC1Ev @107
    _ZN5boost13serialization9singletonINS0_25extended_type_info_typeidIN4Core7FMTlistINS3_7FMTforkEEEEEEC2Ev @108
    _ZN5boost13serialization9singletonINS0_25extended_type_info_typeidIN4Core7FMTlistINS3_7FMTspecEEEEEE18get_const_instanceEv @109
    _ZN5boost13serialization9singletonINS0_25extended_type_info_typeidIN4Core7FMTlistINS3_7FMTspecEEEEEEC1Ev @110
    _ZN5boost13serialization9singletonINS0_25extended_type_info_typeidIN4Core7FMTlistINS3_7FMTspecEEEEEEC2Ev @111
    _ZN5boost13serialization9singletonINS0_25extended_type_info_typeidIN4Core7FMTlistIiEEEEE18get_const_instanceEv @112
    _ZN5boost13serialization9singletonINS0_25extended_type_info_typeidIN4Core7FMTlistIiEEEEEC1Ev @113
    _ZN5boost13serialization9singletonINS0_25extended_type_info_typeidIN4Core7FMTlistIiEEEEEC2Ev @114
    _ZN5boost13serialization9singletonINS0_25extended_type_info_typeidIN4Core7FMTmaskEEEE18get_const_instanceEv @115
    _ZN5boost13serialization9singletonINS0_25extended_type_info_typeidIN4Core7FMTmaskEEEEC1Ev @116
    _ZN5boost13serialization9singletonINS0_25extended_type_info_typeidIN4Core7FMTmaskEEEEC2Ev @117
    _ZN5boost13serialization9singletonINS0_25extended_type_info_typeidIN4Core7FMTspecEEEE18get_const_instanceEv @118
    _ZN5boost13serialization9singletonINS0_25extended_type_info_typeidIN4Core7FMTspecEEEEC1Ev @119
    _ZN5boost13serialization9singletonINS0_25extended_type_info_typeidIN4Core7FMTspecEEEEC2Ev @120
    _ZN5boost13serialization9singletonINS0_25extended_type_info_typeidIN4Core8FMTthemeEEEE18get_const_instanceEv @121
    _ZN5boost13serialization9singletonINS0_25extended_type_info_typeidIN4Core8FMTthemeEEEEC1Ev @122
    _ZN5boost13serialization9singletonINS0_25extended_type_info_typeidIN4Core8FMTthemeEEEEC2Ev @123
    _ZN5boost13serialization9singletonINS0_25extended_type_info_typeidIN4Core9FMTactionEEEE18get_const_instanceEv @124
    _ZN5boost13serialization9singletonINS0_25extended_type_info_typeidIN4Core9FMTactionEEEEC1Ev @125
    _ZN5boost13serialization9singletonINS0_25extended_type_info_typeidIN4Core9FMTactionEEEEC2Ev @126
    _ZN5boost13serialization9singletonINS0_25extended_type_info_typeidIN4Core9FMTboundsIdEEEEE18get_const_instanceEv @127
    _ZN5boost13serialization9singletonINS0_25extended_type_info_typeidIN4Core9FMTboundsIdEEEEEC1Ev @128
    _ZN5boost13serialization9singletonINS0_25extended_type_info_typeidIN4Core9FMTboundsIdEEEEEC2Ev @129
    _ZN5boost13serialization9singletonINS0_25extended_type_info_typeidIN4Core9FMTboundsIiEEEEE18get_const_instanceEv @130
    _ZN5boost13serialization9singletonINS0_25extended_type_info_typeidIN4Core9FMTboundsIiEEEEEC1Ev @131
    _ZN5boost13serialization9singletonINS0_25extended_type_info_typeidIN4Core9FMTboundsIiEEEEEC2Ev @132
    _ZN5boost13serialization9singletonINS0_25extended_type_info_typeidIN4Core9FMToutputEEEE18get_const_instanceEv @133
    _ZN5boost13serialization9singletonINS0_25extended_type_info_typeidIN4Core9FMToutputEEEEC1Ev @134
    _ZN5boost13serialization9singletonINS0_25extended_type_info_typeidIN4Core9FMToutputEEEEC2Ev @135
    _ZN5boost13serialization9singletonINS0_25extended_type_info_typeidIN4Core9FMTyieldsEEEE18get_const_instanceEv @136
    _ZN5boost13serialization9singletonINS0_25extended_type_info_typeidIN4Core9FMTyieldsEEEEC1Ev @137
    _ZN5boost13serialization9singletonINS0_25extended_type_info_typeidIN4Core9FMTyieldsEEEEC2Ev @138
    _ZN5boost13serialization9singletonINS0_25extended_type_info_typeidIN5Graph13FMTgraphstatsEEEE18get_const_instanceEv @139
    _ZN5boost13serialization9singletonINS0_25extended_type_info_typeidIN5Graph13FMTgraphstatsEEEEC1Ev @140
    _ZN5boost13serialization9singletonINS0_25extended_type_info_typeidIN5Graph13FMTgraphstatsEEEEC2Ev @141
    _ZN5boost13serialization9singletonINS0_25extended_type_info_typeidIN5Graph17FMTedgepropertiesEEEE18get_const_instanceEv @142
    _ZN5boost13serialization9singletonINS0_25extended_type_info_typeidIN5Graph17FMTedgepropertiesEEEEC1Ev @143
    _ZN5boost13serialization9singletonINS0_25extended_type_info_typeidIN5Graph17FMTedgepropertiesEEEEC2Ev @144
    _ZN5boost13serialization9singletonINS0_25extended_type_info_typeidIN5Graph19FMTvertexpropertiesEEEE18get_const_instanceEv @145
    _ZN5boost13serialization9singletonINS0_25extended_type_info_typeidIN5Graph19FMTvertexpropertiesEEEEC1Ev @146
    _ZN5boost13serialization9singletonINS0_25extended_type_info_typeidIN5Graph19FMTvertexpropertiesEEEEC2Ev @147
    _ZN5boost13serialization9singletonINS0_25extended_type_info_typeidIN5Graph8FMTgraphEEEE18get_const_instanceEv @148
    _ZN5boost13serialization9singletonINS0_25extended_type_info_typeidIN5Graph8FMTgraphEEEEC1Ev @149
    _ZN5boost13serialization9singletonINS0_25extended_type_info_typeidIN5Graph8FMTgraphEEEEC2Ev @150
    _ZN5boost13serialization9singletonINS0_25extended_type_info_typeidIN6Models10FMTlpmodelEEEE18get_const_instanceEv @151
    _ZN5boost13serialization9singletonINS0_25extended_type_info_typeidIN6Models10FMTlpmodelEEEEC1Ev @152
    _ZN5boost13serialization9singletonINS0_25extended_type_info_typeidIN6Models10FMTlpmodelEEEEC2Ev @153
    _ZN5boost13serialization9singletonINS0_25extended_type_info_typeidIN6Models11FMTlpsolverEEEE18get_const_instanceEv @154
    _ZN5boost13serialization9singletonINS0_25extended_type_info_typeidIN6Models11FMTlpsolverEEEEC1Ev @155
    _ZN5boost13serialization9singletonINS0_25extended_type_info_typeidIN6Models11FMTlpsolverEEEEC2Ev @156
    _ZN5boost13serialization9singletonINS0_25extended_type_info_typeidIN6Models11FMTnssmodelEEEE18get_const_instanceEv @157
    _ZN5boost13serialization9singletonINS0_25extended_type_info_typeidIN6Models11FMTnssmodelEEEEC1Ev @158
    _ZN5boost13serialization9singletonINS0_25extended_type_info_typeidIN6Models11FMTnssmodelEEEEC2Ev @159
    _ZN5boost13serialization9singletonINS0_25extended_type_info_typeidIN6Models11FMTsesmodelEEEE18get_const_instanceEv @160
    _ZN5boost13serialization9singletonINS0_25extended_type_info_typeidIN6Models11FMTsesmodelEEEEC1Ev @161
    _ZN5boost13serialization9singletonINS0_25extended_type_info_typeidIN6Models11FMTsesmodelEEEEC2Ev @162
    _ZN5boost13serialization9singletonINS0_25extended_type_info_typeidIN6Models21FMTserializablematrixEEEE18get_const_instanceEv @163
    _ZN5boost13serialization9singletonINS0_25extended_type_info_typeidIN6Models21FMTserializablematrixEEEEC1Ev @164
    _ZN5boost13serialization9singletonINS0_25extended_type_info_typeidIN6Models21FMTserializablematrixEEEEC2Ev @165
    _ZN5boost13serialization9singletonINS0_25extended_type_info_typeidIN6Models8FMTmodelEEEE18get_const_instanceEv @166
    _ZN5boost13serialization9singletonINS0_25extended_type_info_typeidIN6Models8FMTmodelEEEEC1Ev @167
    _ZN5boost13serialization9singletonINS0_25extended_type_info_typeidIN6Models8FMTmodelEEEEC2Ev @168
    _ZN5boost13serialization9singletonINS0_25extended_type_info_typeidIN7Spatial11FMTseseventIN4Core14FMTdevelopmentEEEEEE18get_const_instanceEv @169
    _ZN5boost13serialization9singletonINS0_25extended_type_info_typeidIN7Spatial11FMTseseventIN4Core14FMTdevelopmentEEEEEEC1Ev @170
    _ZN5boost13serialization9singletonINS0_25extended_type_info_typeidIN7Spatial11FMTseseventIN4Core14FMTdevelopmentEEEEEEC2Ev @171
    _ZN5boost13serialization9singletonINS0_25extended_type_info_typeidIN7Spatial13FMTcoordinateEEEE18get_const_instanceEv @172
    _ZN5boost13serialization9singletonINS0_25extended_type_info_typeidIN7Spatial13FMTcoordinateEEEEC1Ev @173
    _ZN5boost13serialization9singletonINS0_25extended_type_info_typeidIN7Spatial13FMTcoordinateEEEEC2Ev @174
    _ZN5boost13serialization9singletonINS0_25extended_type_info_typeidIN7Spatial16FMTspatialactionEEEE18get_const_instanceEv @175
    _ZN5boost13serialization9singletonINS0_25extended_type_info_typeidIN7Spatial16FMTspatialactionEEEEC1Ev @176
    _ZN5boost13serialization9singletonINS0_25extended_type_info_typeidIN7Spatial16FMTspatialactionEEEEC2Ev @177
    _ZN5boost13serialization9singletonINS0_25extended_type_info_typeidIN7Spatial19FMTdisturbancestackEEEE18get_const_instanceEv @178
    _ZN5boost13serialization9singletonINS0_25extended_type_info_typeidIN7Spatial19FMTdisturbancestackEEEEC1Ev @179
    _ZN5boost13serialization9singletonINS0_25extended_type_info_typeidIN7Spatial19FMTdisturbancestackEEEEC2Ev @180
    _ZN5boost13serialization9singletonINS0_25extended_type_info_typeidIN7Spatial8FMTeventEEEE18get_const_instanceEv @181
    _ZN5boost13serialization9singletonINS0_25extended_type_info_typeidIN7Spatial8FMTeventEEEEC1Ev @182
    _ZN5boost13serialization9singletonINS0_25extended_type_info_typeidIN7Spatial8FMTeventEEEEC2Ev @183
    _ZN5boost13serialization9singletonINS0_25extended_type_info_typeidIN7Spatial8FMTlayerIN4Core14FMTdevelopmentEEEEEE18get_const_instanceEv @184
    _ZN5boost13serialization9singletonINS0_25extended_type_info_typeidIN7Spatial8FMTlayerIN4Core14FMTdevelopmentEEEEEEC1Ev @185
    _ZN5boost13serialization9singletonINS0_25extended_type_info_typeidIN7Spatial8FMTlayerIN4Core14FMTdevelopmentEEEEEEC2Ev @186
    _ZN5boost13serialization9singletonINS0_25extended_type_info_typeidIN7Spatial9FMTforestEEEE18get_const_instanceEv @187
    _ZN5boost13serialization9singletonINS0_25extended_type_info_typeidIN7Spatial9FMTforestEEEEC1Ev @188
    _ZN5boost13serialization9singletonINS0_25extended_type_info_typeidIN7Spatial9FMTforestEEEEC2Ev @189
    _ZN5boost13serialization9singletonINS0_25extended_type_info_typeidINS_11no_propertyEEEE18get_const_instanceEv @190
    _ZN5boost13serialization9singletonINS0_25extended_type_info_typeidINS_11no_propertyEEEEC1Ev @191
    _ZN5boost13serialization9singletonINS0_25extended_type_info_typeidINS_11no_propertyEEEEC2Ev @192
    _ZN5boost13serialization9singletonINS0_25extended_type_info_typeidINS_14adjacency_listINS_5listSES4_NS_14bidirectionalSEN5Graph19FMTvertexpropertiesENS6_17FMTedgepropertiesENS_11no_propertyES4_EEEEE18get_const_instanceEv @193
    _ZN5boost13serialization9singletonINS0_25extended_type_info_typeidINS_14adjacency_listINS_5listSES4_NS_14bidirectionalSEN5Graph19FMTvertexpropertiesENS6_17FMTedgepropertiesENS_11no_propertyES4_EEEEEC1Ev @194
    _ZN5boost13serialization9singletonINS0_25extended_type_info_typeidINS_14adjacency_listINS_5listSES4_NS_14bidirectionalSEN5Graph19FMTvertexpropertiesENS6_17FMTedgepropertiesENS_11no_propertyES4_EEEEEC2Ev @195
    _ZN5boost13serialization9singletonINS0_25extended_type_info_typeidINS_14dynamic_bitsetImSaImEEEEEE18get_const_instanceEv @196
    _ZN5boost13serialization9singletonINS0_25extended_type_info_typeidINS_14dynamic_bitsetImSaImEEEEEEC1Ev @197
    _ZN5boost13serialization9singletonINS0_25extended_type_info_typeidINS_14dynamic_bitsetImSaImEEEEEEC2Ev @198
    _ZN5boost13serialization9singletonINS0_25extended_type_info_typeidISt10unique_ptrIN4Core14FMTdevelopmentESt14default_deleteIS5_EEEEE18get_const_instanceEv @199
    _ZN5boost13serialization9singletonINS0_25extended_type_info_typeidISt10unique_ptrIN4Core14FMTdevelopmentESt14default_deleteIS5_EEEEEC1Ev @200
    _ZN5boost13serialization9singletonINS0_25extended_type_info_typeidISt10unique_ptrIN4Core14FMTdevelopmentESt14default_deleteIS5_EEEEEC2Ev @201
    _ZN5boost13serialization9singletonINS0_25extended_type_info_typeidISt13unordered_mapImSt6vectorIS4_IiSaIiEESaIS6_EESt4hashImESt8equal_toImESaISt4pairIKmS8_EEEEEE18get_const_instanceEv @202
    _ZN5boost13serialization9singletonINS0_25extended_type_info_typeidISt13unordered_mapImSt6vectorIS4_IiSaIiEESaIS6_EESt4hashImESt8equal_toImESaISt4pairIKmS8_EEEEEEC1Ev @203
    _ZN5boost13serialization9singletonINS0_25extended_type_info_typeidISt13unordered_mapImSt6vectorIS4_IiSaIiEESaIS6_EESt4hashImESt8equal_toImESaISt4pairIKmS8_EEEEEEC2Ev @204
    _ZN5boost13serialization9singletonINS0_25extended_type_info_typeidISt3mapIN4Core14FMTdevelopmentESt6vectorIdSaIdEESt4lessIS5_ESaISt4pairIKS5_S8_EEEEEE18get_const_instanceEv @205
    _ZN5boost13serialization9singletonINS0_25extended_type_info_typeidISt3mapIN4Core14FMTdevelopmentESt6vectorIdSaIdEESt4lessIS5_ESaISt4pairIKS5_S8_EEEEEEC1Ev @206
    _ZN5boost13serialization9singletonINS0_25extended_type_info_typeidISt3mapIN4Core14FMTdevelopmentESt6vectorIdSaIdEESt4lessIS5_ESaISt4pairIKS5_S8_EEEEEEC2Ev @207
    _ZN5boost13serialization9singletonINS0_25extended_type_info_typeidISt3mapIN4Core9FMTactionES3_INS4_14FMTdevelopmentESt6vectorIdSaIdEESt4lessIS6_ESaISt4pairIKS6_S9_EEESA_IS5_ESaISC_IKS5_SG_EEEEEE18get_const_instanceEv @208
    _ZN5boost13serialization9singletonINS0_25extended_type_info_typeidISt3mapIN4Core9FMTactionES3_INS4_14FMTdevelopmentESt6vectorIdSaIdEESt4lessIS6_ESaISt4pairIKS6_S9_EEESA_IS5_ESaISC_IKS5_SG_EEEEEEC1Ev @209
    _ZN5boost13serialization9singletonINS0_25extended_type_info_typeidISt3mapIN4Core9FMTactionES3_INS4_14FMTdevelopmentESt6vectorIdSaIdEESt4lessIS6_ESaISt4pairIKS6_S9_EEESA_IS5_ESaISC_IKS5_SG_EEEEEEC2Ev @210
    _ZN5boost13serialization9singletonINS0_25extended_type_info_typeidISt3mapIN7Spatial13FMTcoordinateEN4Core14FMTdevelopmentESt4lessIS5_ESaISt4pairIKS5_S7_EEEEEE18get_const_instanceEv @211
    _ZN5boost13serialization9singletonINS0_25extended_type_info_typeidISt3mapIN7Spatial13FMTcoordinateEN4Core14FMTdevelopmentESt4lessIS5_ESaISt4pairIKS5_S7_EEEEEEC1Ev @212
    _ZN5boost13serialization9singletonINS0_25extended_type_info_typeidISt3mapIN7Spatial13FMTcoordinateEN4Core14FMTdevelopmentESt4lessIS5_ESaISt4pairIKS5_S7_EEEEEEC2Ev @213
    _ZN5boost13serialization9singletonINS0_25extended_type_info_typeidISt3mapISsN4Core12FMTyldboundsESt4lessISsESaISt4pairIKSsS5_EEEEEE18get_const_instanceEv @214
    _ZN5boost13serialization9singletonINS0_25extended_type_info_typeidISt3mapISsN4Core12FMTyldboundsESt4lessISsESaISt4pairIKSsS5_EEEEEEC1Ev @215
    _ZN5boost13serialization9singletonINS0_25extended_type_info_typeidISt3mapISsN4Core12FMTyldboundsESt4lessISsESaISt4pairIKSsS5_EEEEEEC2Ev @216
    _ZN5boost13serialization9singletonINS0_25extended_type_info_typeidISt3mapISsN4Core7FMTdataESt4lessISsESaISt4pairIKSsS5_EEEEEE18get_const_instanceEv @217
    _ZN5boost13serialization9singletonINS0_25extended_type_info_typeidISt3mapISsN4Core7FMTdataESt4lessISsESaISt4pairIKSsS5_EEEEEEC1Ev @218
    _ZN5boost13serialization9singletonINS0_25extended_type_info_typeidISt3mapISsN4Core7FMTdataESt4lessISsESaISt4pairIKSsS5_EEEEEEC2Ev @219
    _ZN5boost13serialization9singletonINS0_25extended_type_info_typeidISt3mapISsS3_ISsdSt4lessISsESaISt4pairIKSsdEEES5_SaIS6_IS7_SA_EEEEEE18get_const_instanceEv @220
    _ZN5boost13serialization9singletonINS0_25extended_type_info_typeidISt3mapISsS3_ISsdSt4lessISsESaISt4pairIKSsdEEES5_SaIS6_IS7_SA_EEEEEEC1Ev @221
    _ZN5boost13serialization9singletonINS0_25extended_type_info_typeidISt3mapISsS3_ISsdSt4lessISsESaISt4pairIKSsdEEES5_SaIS6_IS7_SA_EEEEEEC2Ev @222
    _ZN5boost13serialization9singletonINS0_25extended_type_info_typeidISt3mapISsSsSt4lessISsESaISt4pairIKSsSsEEEEEE18get_const_instanceEv @223
    _ZN5boost13serialization9singletonINS0_25extended_type_info_typeidISt3mapISsSsSt4lessISsESaISt4pairIKSsSsEEEEEEC1Ev @224
    _ZN5boost13serialization9singletonINS0_25extended_type_info_typeidISt3mapISsSsSt4lessISsESaISt4pairIKSsSsEEEEEEC2Ev @225
    _ZN5boost13serialization9singletonINS0_25extended_type_info_typeidISt3mapISsSt6vectorIN7Spatial11FMTseseventIN4Core14FMTdevelopmentEEESaIS9_EESt4lessISsESaISt4pairIKSsSB_EEEEEE18get_const_instanceEv @226
    _ZN5boost13serialization9singletonINS0_25extended_type_info_typeidISt3mapISsSt6vectorIN7Spatial11FMTseseventIN4Core14FMTdevelopmentEEESaIS9_EESt4lessISsESaISt4pairIKSsSB_EEEEEEC1Ev @227
    _ZN5boost13serialization9singletonINS0_25extended_type_info_typeidISt3mapISsSt6vectorIN7Spatial11FMTseseventIN4Core14FMTdevelopmentEEESaIS9_EESt4lessISsESaISt4pairIKSsSB_EEEEEEC2Ev @228
    _ZN5boost13serialization9singletonINS0_25extended_type_info_typeidISt3mapISsSt6vectorISsSaISsEESt4lessISsESaISt4pairIKSsS6_EEEEEE18get_const_instanceEv @229
    _ZN5boost13serialization9singletonINS0_25extended_type_info_typeidISt3mapISsSt6vectorISsSaISsEESt4lessISsESaISt4pairIKSsS6_EEEEEEC1Ev @230
    _ZN5boost13serialization9singletonINS0_25extended_type_info_typeidISt3mapISsSt6vectorISsSaISsEESt4lessISsESaISt4pairIKSsS6_EEEEEEC2Ev @231
    _ZN5boost13serialization9singletonINS0_25extended_type_info_typeidISt3mapISsdSt4lessISsESaISt4pairIKSsdEEEEEE18get_const_instanceEv @232
    _ZN5boost13serialization9singletonINS0_25extended_type_info_typeidISt3mapISsdSt4lessISsESaISt4pairIKSsdEEEEEEC1Ev @233
    _ZN5boost13serialization9singletonINS0_25extended_type_info_typeidISt3mapISsdSt4lessISsESaISt4pairIKSsdEEEEEEC2Ev @234
    _ZN5boost13serialization9singletonINS0_25extended_type_info_typeidISt3setIN7Spatial13FMTcoordinateESt4lessIS5_ESaIS5_EEEEE18get_const_instanceEv @235
    _ZN5boost13serialization9singletonINS0_25extended_type_info_typeidISt3setIN7Spatial13FMTcoordinateESt4lessIS5_ESaIS5_EEEEEC1Ev @236
    _ZN5boost13serialization9singletonINS0_25extended_type_info_typeidISt3setIN7Spatial13FMTcoordinateESt4lessIS5_ESaIS5_EEEEEC2Ev @237
    _ZN5boost13serialization9singletonINS0_25extended_type_info_typeidISt4pairIKN4Core14FMTdevelopmentESt6vectorIdSaIdEEEEEE18get_const_instanceEv @238
    _ZN5boost13serialization9singletonINS0_25extended_type_info_typeidISt4pairIKN4Core14FMTdevelopmentESt6vectorIdSaIdEEEEEEC1Ev @239
    _ZN5boost13serialization9singletonINS0_25extended_type_info_typeidISt4pairIKN4Core14FMTdevelopmentESt6vectorIdSaIdEEEEEEC2Ev @240
    _ZN5boost13serialization9singletonINS0_25extended_type_info_typeidISt4pairIKN4Core9FMTactionESt3mapINS4_14FMTdevelopmentESt6vectorIdSaIdEESt4lessIS8_ESaIS3_IKS8_SB_EEEEEEE18get_const_instanceEv @241
    _ZN5boost13serialization9singletonINS0_25extended_type_info_typeidISt4pairIKN4Core9FMTactionESt3mapINS4_14FMTdevelopmentESt6vectorIdSaIdEESt4lessIS8_ESaIS3_IKS8_SB_EEEEEEEC1Ev @242
    _ZN5boost13serialization9singletonINS0_25extended_type_info_typeidISt4pairIKN4Core9FMTactionESt3mapINS4_14FMTdevelopmentESt6vectorIdSaIdEESt4lessIS8_ESaIS3_IKS8_SB_EEEEEEEC2Ev @243
    _ZN5boost13serialization9singletonINS0_25extended_type_info_typeidISt4pairIKN7Spatial13FMTcoordinateEN4Core14FMTdevelopmentEEEEE18get_const_instanceEv @244
    _ZN5boost13serialization9singletonINS0_25extended_type_info_typeidISt4pairIKN7Spatial13FMTcoordinateEN4Core14FMTdevelopmentEEEEEC1Ev @245
    _ZN5boost13serialization9singletonINS0_25extended_type_info_typeidISt4pairIKN7Spatial13FMTcoordinateEN4Core14FMTdevelopmentEEEEEC2Ev @246
    _ZN5boost13serialization9singletonINS0_25extended_type_info_typeidISt4pairIKSsN4Core12FMTyldboundsEEEEE18get_const_instanceEv @247
    _ZN5boost13serialization9singletonINS0_25extended_type_info_typeidISt4pairIKSsN4Core12FMTyldboundsEEEEEC1Ev @248
    _ZN5boost13serialization9singletonINS0_25extended_type_info_typeidISt4pairIKSsN4Core12FMTyldboundsEEEEEC2Ev @249
    _ZN5boost13serialization9singletonINS0_25extended_type_info_typeidISt4pairIKSsN4Core7FMTdataEEEEE18get_const_instanceEv @250
    _ZN5boost13serialization9singletonINS0_25extended_type_info_typeidISt4pairIKSsN4Core7FMTdataEEEEEC1Ev @251
    _ZN5boost13serialization9singletonINS0_25extended_type_info_typeidISt4pairIKSsN4Core7FMTdataEEEEEC2Ev @252
    _ZN5boost13serialization9singletonINS0_25extended_type_info_typeidISt4pairIKSsSsEEEE18get_const_instanceEv @253
    _ZN5boost13serialization9singletonINS0_25extended_type_info_typeidISt4pairIKSsSsEEEEC1Ev @254
    _ZN5boost13serialization9singletonINS0_25extended_type_info_typeidISt4pairIKSsSsEEEEC2Ev @255
    _ZN5boost13serialization9singletonINS0_25extended_type_info_typeidISt4pairIKSsSt3mapISsdSt4lessISsESaIS3_IS4_dEEEEEEE18get_const_instanceEv @256
    _ZN5boost13serialization9singletonINS0_25extended_type_info_typeidISt4pairIKSsSt3mapISsdSt4lessISsESaIS3_IS4_dEEEEEEEC1Ev @257
    _ZN5boost13serialization9singletonINS0_25extended_type_info_typeidISt4pairIKSsSt3mapISsdSt4lessISsESaIS3_IS4_dEEEEEEEC2Ev @258
    _ZN5boost13serialization9singletonINS0_25extended_type_info_typeidISt4pairIKSsSt6vectorIN7Spatial11FMTseseventIN4Core14FMTdevelopmentEEESaISA_EEEEEE18get_const_instanceEv @259
    _ZN5boost13serialization9singletonINS0_25extended_type_info_typeidISt4pairIKSsSt6vectorIN7Spatial11FMTseseventIN4Core14FMTdevelopmentEEESaISA_EEEEEEC1Ev @260
    _ZN5boost13serialization9singletonINS0_25extended_type_info_typeidISt4pairIKSsSt6vectorIN7Spatial11FMTseseventIN4Core14FMTdevelopmentEEESaISA_EEEEEEC2Ev @261
    _ZN5boost13serialization9singletonINS0_25extended_type_info_typeidISt4pairIKSsSt6vectorISsSaISsEEEEEE18get_const_instanceEv @262
    _ZN5boost13serialization9singletonINS0_25extended_type_info_typeidISt4pairIKSsSt6vectorISsSaISsEEEEEEC1Ev @263
    _ZN5boost13serialization9singletonINS0_25extended_type_info_typeidISt4pairIKSsSt6vectorISsSaISsEEEEEEC2Ev @264
    _ZN5boost13serialization9singletonINS0_25extended_type_info_typeidISt4pairIKSsdEEEE18get_const_instanceEv @265
    _ZN5boost13serialization9singletonINS0_25extended_type_info_typeidISt4pairIKSsdEEEEC1Ev @266
    _ZN5boost13serialization9singletonINS0_25extended_type_info_typeidISt4pairIKSsdEEEEC2Ev @267
    _ZN5boost13serialization9singletonINS0_25extended_type_info_typeidISt4pairIKmSt6vectorIS5_IiSaIiEESaIS7_EEEEEE18get_const_instanceEv @268
    _ZN5boost13serialization9singletonINS0_25extended_type_info_typeidISt4pairIKmSt6vectorIS5_IiSaIiEESaIS7_EEEEEEC1Ev @269
    _ZN5boost13serialization9singletonINS0_25extended_type_info_typeidISt4pairIKmSt6vectorIS5_IiSaIiEESaIS7_EEEEEEC2Ev @270
    _ZN5boost13serialization9singletonINS0_25extended_type_info_typeidISt4pairIN4Core7FMTmaskENS4_15FMTyieldhandlerEEEEE18get_const_instanceEv @271
    _ZN5boost13serialization9singletonINS0_25extended_type_info_typeidISt4pairIN4Core7FMTmaskENS4_15FMTyieldhandlerEEEEEC1Ev @272
    _ZN5boost13serialization9singletonINS0_25extended_type_info_typeidISt4pairIN4Core7FMTmaskENS4_15FMTyieldhandlerEEEEEC2Ev @273
    _ZN5boost13serialization9singletonINS0_25extended_type_info_typeidISt4pairIN4Core7FMTmaskENS4_7FMTforkEEEEE18get_const_instanceEv @274
    _ZN5boost13serialization9singletonINS0_25extended_type_info_typeidISt4pairIN4Core7FMTmaskENS4_7FMTforkEEEEEC1Ev @275
    _ZN5boost13serialization9singletonINS0_25extended_type_info_typeidISt4pairIN4Core7FMTmaskENS4_7FMTforkEEEEEC2Ev @276
    _ZN5boost13serialization9singletonINS0_25extended_type_info_typeidISt4pairIN4Core7FMTmaskENS4_7FMTspecEEEEE18get_const_instanceEv @277
    _ZN5boost13serialization9singletonINS0_25extended_type_info_typeidISt4pairIN4Core7FMTmaskENS4_7FMTspecEEEEEC1Ev @278
    _ZN5boost13serialization9singletonINS0_25extended_type_info_typeidISt4pairIN4Core7FMTmaskENS4_7FMTspecEEEEEC2Ev @279
    _ZN5boost13serialization9singletonINS0_25extended_type_info_typeidISt4pairIN4Core7FMTmaskESt6vectorIiSaIiEEEEEE18get_const_instanceEv @280
    _ZN5boost13serialization9singletonINS0_25extended_type_info_typeidISt4pairIN4Core7FMTmaskESt6vectorIiSaIiEEEEEEC1Ev @281
    _ZN5boost13serialization9singletonINS0_25extended_type_info_typeidISt4pairIN4Core7FMTmaskESt6vectorIiSaIiEEEEEEC2Ev @282
    _ZN5boost13serialization9singletonINS0_25extended_type_info_typeidISt4pairIN4Core7FMTmaskEiEEEE18get_const_instanceEv @283
    _ZN5boost13serialization9singletonINS0_25extended_type_info_typeidISt4pairIN4Core7FMTmaskEiEEEEC1Ev @284
    _ZN5boost13serialization9singletonINS0_25extended_type_info_typeidISt4pairIN4Core7FMTmaskEiEEEEC2Ev @285
    _ZN5boost13serialization9singletonINS0_25extended_type_info_typeidISt6vectorIN4Core11FMToperatorESaIS5_EEEEE18get_const_instanceEv @286
    _ZN5boost13serialization9singletonINS0_25extended_type_info_typeidISt6vectorIN4Core11FMToperatorESaIS5_EEEEEC1Ev @287
    _ZN5boost13serialization9singletonINS0_25extended_type_info_typeidISt6vectorIN4Core11FMToperatorESaIS5_EEEEEC2Ev @288
    _ZN5boost13serialization9singletonINS0_25extended_type_info_typeidISt6vectorIN4Core11FMTscheduleESaIS5_EEEEE18get_const_instanceEv @289
    _ZN5boost13serialization9singletonINS0_25extended_type_info_typeidISt6vectorIN4Core11FMTscheduleESaIS5_EEEEEC1Ev @290
    _ZN5boost13serialization9singletonINS0_25extended_type_info_typeidISt6vectorIN4Core11FMTscheduleESaIS5_EEEEEC2Ev @291
    _ZN5boost13serialization9singletonINS0_25extended_type_info_typeidISt6vectorIN4Core13FMTconstraintESaIS5_EEEEE18get_const_instanceEv @292
    _ZN5boost13serialization9singletonINS0_25extended_type_info_typeidISt6vectorIN4Core13FMTconstraintESaIS5_EEEEEC1Ev @293
    _ZN5boost13serialization9singletonINS0_25extended_type_info_typeidISt6vectorIN4Core13FMTconstraintESaIS5_EEEEEC2Ev @294
    _ZN5boost13serialization9singletonINS0_25extended_type_info_typeidISt6vectorIN4Core13FMTtransitionESaIS5_EEEEE18get_const_instanceEv @295
    _ZN5boost13serialization9singletonINS0_25extended_type_info_typeidISt6vectorIN4Core13FMTtransitionESaIS5_EEEEEC1Ev @296
    _ZN5boost13serialization9singletonINS0_25extended_type_info_typeidISt6vectorIN4Core13FMTtransitionESaIS5_EEEEEC2Ev @297
    _ZN5boost13serialization9singletonINS0_25extended_type_info_typeidISt6vectorIN4Core15FMToutputsourceESaIS5_EEEEE18get_const_instanceEv @298
    _ZN5boost13serialization9singletonINS0_25extended_type_info_typeidISt6vectorIN4Core15FMToutputsourceESaIS5_EEEEEC1Ev @299
    _ZN5boost13serialization9singletonINS0_25extended_type_info_typeidISt6vectorIN4Core15FMToutputsourceESaIS5_EEEEEC2Ev @300
    _ZN5boost13serialization9singletonINS0_25extended_type_info_typeidISt6vectorIN4Core17FMTtransitionmaskESaIS5_EEEEE18get_const_instanceEv @301
    _ZN5boost13serialization9singletonINS0_25extended_type_info_typeidISt6vectorIN4Core17FMTtransitionmaskESaIS5_EEEEEC1Ev @302
    _ZN5boost13serialization9singletonINS0_25extended_type_info_typeidISt6vectorIN4Core17FMTtransitionmaskESaIS5_EEEEEC2Ev @303
    _ZN5boost13serialization9singletonINS0_25extended_type_info_typeidISt6vectorIN4Core20FMTactualdevelopmentESaIS5_EEEEE18get_const_instanceEv @304
    _ZN5boost13serialization9singletonINS0_25extended_type_info_typeidISt6vectorIN4Core20FMTactualdevelopmentESaIS5_EEEEEC1Ev @305
    _ZN5boost13serialization9singletonINS0_25extended_type_info_typeidISt6vectorIN4Core20FMTactualdevelopmentESaIS5_EEEEEC2Ev @306
    _ZN5boost13serialization9singletonINS0_25extended_type_info_typeidISt6vectorIN4Core7FMTmaskESaIS5_EEEEE18get_const_instanceEv @307
    _ZN5boost13serialization9singletonINS0_25extended_type_info_typeidISt6vectorIN4Core7FMTmaskESaIS5_EEEEEC1Ev @308
    _ZN5boost13serialization9singletonINS0_25extended_type_info_typeidISt6vectorIN4Core7FMTmaskESaIS5_EEEEEC2Ev @309
    _ZN5boost13serialization9singletonINS0_25extended_type_info_typeidISt6vectorIN4Core8FMTthemeESaIS5_EEEEE18get_const_instanceEv @310
    _ZN5boost13serialization9singletonINS0_25extended_type_info_typeidISt6vectorIN4Core8FMTthemeESaIS5_EEEEEC1Ev @311
    _ZN5boost13serialization9singletonINS0_25extended_type_info_typeidISt6vectorIN4Core8FMTthemeESaIS5_EEEEEC2Ev @312
    _ZN5boost13serialization9singletonINS0_25extended_type_info_typeidISt6vectorIN4Core9FMTactionESaIS5_EEEEE18get_const_instanceEv @313
    _ZN5boost13serialization9singletonINS0_25extended_type_info_typeidISt6vectorIN4Core9FMTactionESaIS5_EEEEEC1Ev @314
    _ZN5boost13serialization9singletonINS0_25extended_type_info_typeidISt6vectorIN4Core9FMTactionESaIS5_EEEEEC2Ev @315
    _ZN5boost13serialization9singletonINS0_25extended_type_info_typeidISt6vectorIN4Core9FMToutputESaIS5_EEEEE18get_const_instanceEv @316
    _ZN5boost13serialization9singletonINS0_25extended_type_info_typeidISt6vectorIN4Core9FMToutputESaIS5_EEEEEC1Ev @317
    _ZN5boost13serialization9singletonINS0_25extended_type_info_typeidISt6vectorIN4Core9FMToutputESaIS5_EEEEEC2Ev @318
    _ZN5boost13serialization9singletonINS0_25extended_type_info_typeidISt6vectorIN7Spatial11FMTseseventIN4Core14FMTdevelopmentEEESaIS8_EEEEE18get_const_instanceEv @319
    _ZN5boost13serialization9singletonINS0_25extended_type_info_typeidISt6vectorIN7Spatial11FMTseseventIN4Core14FMTdevelopmentEEESaIS8_EEEEEC1Ev @320
    _ZN5boost13serialization9singletonINS0_25extended_type_info_typeidISt6vectorIN7Spatial11FMTseseventIN4Core14FMTdevelopmentEEESaIS8_EEEEEC2Ev @321
    _ZN5boost13serialization9singletonINS0_25extended_type_info_typeidISt6vectorIN7Spatial13FMTcoordinateESaIS5_EEEEE18get_const_instanceEv @322
    _ZN5boost13serialization9singletonINS0_25extended_type_info_typeidISt6vectorIN7Spatial13FMTcoordinateESaIS5_EEEEEC1Ev @323
    _ZN5boost13serialization9singletonINS0_25extended_type_info_typeidISt6vectorIN7Spatial13FMTcoordinateESaIS5_EEEEEC2Ev @324
    _ZN5boost13serialization9singletonINS0_25extended_type_info_typeidISt6vectorIN7Spatial16FMTspatialactionESaIS5_EEEEE18get_const_instanceEv @325
    _ZN5boost13serialization9singletonINS0_25extended_type_info_typeidISt6vectorIN7Spatial16FMTspatialactionESaIS5_EEEEEC1Ev @326
    _ZN5boost13serialization9singletonINS0_25extended_type_info_typeidISt6vectorIN7Spatial16FMTspatialactionESaIS5_EEEEEC2Ev @327
    _ZN5boost13serialization9singletonINS0_25extended_type_info_typeidISt6vectorIS3_IiSaIiEESaIS5_EEEEE18get_const_instanceEv @328
    _ZN5boost13serialization9singletonINS0_25extended_type_info_typeidISt6vectorIS3_IiSaIiEESaIS5_EEEEEC1Ev @329
    _ZN5boost13serialization9singletonINS0_25extended_type_info_typeidISt6vectorIS3_IiSaIiEESaIS5_EEEEEC2Ev @330
    _ZN5boost13serialization9singletonINS0_25extended_type_info_typeidISt6vectorISsSaISsEEEEE18get_const_instanceEv @331
    _ZN5boost13serialization9singletonINS0_25extended_type_info_typeidISt6vectorISsSaISsEEEEEC1Ev @332
    _ZN5boost13serialization9singletonINS0_25extended_type_info_typeidISt6vectorISsSaISsEEEEEC2Ev @333
    _ZN5boost13serialization9singletonINS0_25extended_type_info_typeidISt6vectorISt13unordered_mapImS3_IS3_IiSaIiEESaIS6_EESt4hashImESt8equal_toImESaISt4pairIKmS8_EEESaISH_EEEEE18get_const_instanceEv @334
    _ZN5boost13serialization9singletonINS0_25extended_type_info_typeidISt6vectorISt13unordered_mapImS3_IS3_IiSaIiEESaIS6_EESt4hashImESt8equal_toImESaISt4pairIKmS8_EEESaISH_EEEEEC1Ev @335
    _ZN5boost13serialization9singletonINS0_25extended_type_info_typeidISt6vectorISt13unordered_mapImS3_IS3_IiSaIiEESaIS6_EESt4hashImESt8equal_toImESaISt4pairIKmS8_EEESaISH_EEEEEC2Ev @336
    _ZN5boost13serialization9singletonINS0_25extended_type_info_typeidISt6vectorISt3mapISsS3_IN7Spatial11FMTseseventIN4Core14FMTdevelopmentEEESaIS9_EESt4lessISsESaISt4pairIKSsSB_EEESaISI_EEEEE18get_const_instanceEv @337
    _ZN5boost13serialization9singletonINS0_25extended_type_info_typeidISt6vectorISt3mapISsS3_IN7Spatial11FMTseseventIN4Core14FMTdevelopmentEEESaIS9_EESt4lessISsESaISt4pairIKSsSB_EEESaISI_EEEEEC1Ev @338
    _ZN5boost13serialization9singletonINS0_25extended_type_info_typeidISt6vectorISt3mapISsS3_IN7Spatial11FMTseseventIN4Core14FMTdevelopmentEEESaIS9_EESt4lessISsESaISt4pairIKSsSB_EEESaISI_EEEEEC2Ev @339
    _ZN5boost13serialization9singletonINS0_25extended_type_info_typeidISt6vectorISt4pairIN4Core7FMTmaskENS5_15FMTyieldhandlerEESaIS8_EEEEE18get_const_instanceEv @340
    _ZN5boost13serialization9singletonINS0_25extended_type_info_typeidISt6vectorISt4pairIN4Core7FMTmaskENS5_15FMTyieldhandlerEESaIS8_EEEEEC1Ev @341
    _ZN5boost13serialization9singletonINS0_25extended_type_info_typeidISt6vectorISt4pairIN4Core7FMTmaskENS5_15FMTyieldhandlerEESaIS8_EEEEEC2Ev @342
    _ZN5boost13serialization9singletonINS0_25extended_type_info_typeidISt6vectorISt4pairIN4Core7FMTmaskENS5_7FMTforkEESaIS8_EEEEE18get_const_instanceEv @343
    _ZN5boost13serialization9singletonINS0_25extended_type_info_typeidISt6vectorISt4pairIN4Core7FMTmaskENS5_7FMTforkEESaIS8_EEEEEC1Ev @344
    _ZN5boost13serialization9singletonINS0_25extended_type_info_typeidISt6vectorISt4pairIN4Core7FMTmaskENS5_7FMTforkEESaIS8_EEEEEC2Ev @345
    _ZN5boost13serialization9singletonINS0_25extended_type_info_typeidISt6vectorISt4pairIN4Core7FMTmaskENS5_7FMTspecEESaIS8_EEEEE18get_const_instanceEv @346
    _ZN5boost13serialization9singletonINS0_25extended_type_info_typeidISt6vectorISt4pairIN4Core7FMTmaskENS5_7FMTspecEESaIS8_EEEEEC1Ev @347
    _ZN5boost13serialization9singletonINS0_25extended_type_info_typeidISt6vectorISt4pairIN4Core7FMTmaskENS5_7FMTspecEESaIS8_EEEEEC2Ev @348
    _ZN5boost13serialization9singletonINS0_25extended_type_info_typeidISt6vectorISt4pairIN4Core7FMTmaskES3_IiSaIiEEESaIS9_EEEEE18get_const_instanceEv @349
    _ZN5boost13serialization9singletonINS0_25extended_type_info_typeidISt6vectorISt4pairIN4Core7FMTmaskES3_IiSaIiEEESaIS9_EEEEEC1Ev @350
    _ZN5boost13serialization9singletonINS0_25extended_type_info_typeidISt6vectorISt4pairIN4Core7FMTmaskES3_IiSaIiEEESaIS9_EEEEEC2Ev @351
    _ZN5boost13serialization9singletonINS0_25extended_type_info_typeidISt6vectorISt4pairIN4Core7FMTmaskEiESaIS7_EEEEE18get_const_instanceEv @352
    _ZN5boost13serialization9singletonINS0_25extended_type_info_typeidISt6vectorISt4pairIN4Core7FMTmaskEiESaIS7_EEEEEC1Ev @353
    _ZN5boost13serialization9singletonINS0_25extended_type_info_typeidISt6vectorISt4pairIN4Core7FMTmaskEiESaIS7_EEEEEC2Ev @354
    _ZN5boost13serialization9singletonINS0_25extended_type_info_typeidISt6vectorIbSaIbEEEEE18get_const_instanceEv @355
    _ZN5boost13serialization9singletonINS0_25extended_type_info_typeidISt6vectorIbSaIbEEEEEC1Ev @356
    _ZN5boost13serialization9singletonINS0_25extended_type_info_typeidISt6vectorIbSaIbEEEEEC2Ev @357
    _ZN5boost13serialization9singletonINS0_25extended_type_info_typeidISt6vectorIdSaIdEEEEE18get_const_instanceEv @358
    _ZN5boost13serialization9singletonINS0_25extended_type_info_typeidISt6vectorIdSaIdEEEEEC1Ev @359
    _ZN5boost13serialization9singletonINS0_25extended_type_info_typeidISt6vectorIdSaIdEEEEEC2Ev @360
    _ZN5boost13serialization9singletonINS0_25extended_type_info_typeidISt6vectorIiSaIiEEEEE18get_const_instanceEv @361
    _ZN5boost13serialization9singletonINS0_25extended_type_info_typeidISt6vectorIiSaIiEEEEEC1Ev @362
    _ZN5boost13serialization9singletonINS0_25extended_type_info_typeidISt6vectorIiSaIiEEEEEC2Ev @363
    _ZN5boost13serialization9singletonINS0_25extended_type_info_typeidISt6vectorImSaImEEEEE18get_const_instanceEv @364
    _ZN5boost13serialization9singletonINS0_25extended_type_info_typeidISt6vectorImSaImEEEEEC1Ev @365
    _ZN5boost13serialization9singletonINS0_25extended_type_info_typeidISt6vectorImSaImEEEEEC2Ev @366
    _ZN5boost13serialization9singletonINS_7archive6detail11iserializerINS2_15binary_iarchiveEN10Heuristics16FMToperatingareaEEEE18get_const_instanceEv @367
    _ZN5boost13serialization9singletonINS_7archive6detail11iserializerINS2_15binary_iarchiveEN4Core11FMToperatorEEEE18get_const_instanceEv @368
    _ZN5boost13serialization9singletonINS_7archive6detail11iserializerINS2_15binary_iarchiveEN4Core11FMTscheduleEEEE18get_const_instanceEv @369
    _ZN5boost13serialization9singletonINS_7archive6detail11iserializerINS2_15binary_iarchiveEN4Core12FMTageboundsEEEE18get_const_instanceEv @370
    _ZN5boost13serialization9singletonINS_7archive6detail11iserializerINS2_15binary_iarchiveEN4Core12FMTlifespansEEEE18get_const_instanceEv @371
    _ZN5boost13serialization9singletonINS_7archive6detail11iserializerINS2_15binary_iarchiveEN4Core12FMTperboundsEEEE18get_const_instanceEv @372
    _ZN5boost13serialization9singletonINS_7archive6detail11iserializerINS2_15binary_iarchiveEN4Core12FMTyldboundsEEEE18get_const_instanceEv @373
    _ZN5boost13serialization9singletonINS_7archive6detail11iserializerINS2_15binary_iarchiveEN4Core13FMTconstraintEEEE18get_const_instanceEv @374
    _ZN5boost13serialization9singletonINS_7archive6detail11iserializerINS2_15binary_iarchiveEN4Core13FMTlockboundsEEEE18get_const_instanceEv @375
    _ZN5boost13serialization9singletonINS_7archive6detail11iserializerINS2_15binary_iarchiveEN4Core13FMTmaskfilterEEEE18get_const_instanceEv @376
    _ZN5boost13serialization9singletonINS_7archive6detail11iserializerINS2_15binary_iarchiveEN4Core13FMTtransitionEEEE18get_const_instanceEv @377
    _ZN5boost13serialization9singletonINS_7archive6detail11iserializerINS2_15binary_iarchiveEN4Core14FMTdevelopmentEEEE18get_const_instanceEv @378
    _ZN5boost13serialization9singletonINS_7archive6detail11iserializerINS2_15binary_iarchiveEN4Core14FMTdevelopmentEEEE20get_mutable_instanceEv @379
    _ZN5boost13serialization9singletonINS_7archive6detail11iserializerINS2_15binary_iarchiveEN4Core15FMToutputsourceEEEE18get_const_instanceEv @380
    _ZN5boost13serialization9singletonINS_7archive6detail11iserializerINS2_15binary_iarchiveEN4Core15FMTyieldhandlerEEEE18get_const_instanceEv @381
    _ZN5boost13serialization9singletonINS_7archive6detail11iserializerINS2_15binary_iarchiveEN4Core17FMTtransitionmaskEEEE18get_const_instanceEv @382
    _ZN5boost13serialization9singletonINS_7archive6detail11iserializerINS2_15binary_iarchiveEN4Core20FMTactualdevelopmentEEEE18get_const_instanceEv @383
    _ZN5boost13serialization9singletonINS_7archive6detail11iserializerINS2_15binary_iarchiveEN4Core7FMTdataEEEE18get_const_instanceEv @384
    _ZN5boost13serialization9singletonINS_7archive6detail11iserializerINS2_15binary_iarchiveEN4Core7FMTforkEEEE18get_const_instanceEv @385
    _ZN5boost13serialization9singletonINS_7archive6detail11iserializerINS2_15binary_iarchiveEN4Core7FMTlistINS6_15FMTyieldhandlerEEEEEE18get_const_instanceEv @386
    _ZN5boost13serialization9singletonINS_7archive6detail11iserializerINS2_15binary_iarchiveEN4Core7FMTlistINS6_7FMTforkEEEEEE18get_const_instanceEv @387
    _ZN5boost13serialization9singletonINS_7archive6detail11iserializerINS2_15binary_iarchiveEN4Core7FMTlistINS6_7FMTspecEEEEEE18get_const_instanceEv @388
    _ZN5boost13serialization9singletonINS_7archive6detail11iserializerINS2_15binary_iarchiveEN4Core7FMTlistIiEEEEE18get_const_instanceEv @389
    _ZN5boost13serialization9singletonINS_7archive6detail11iserializerINS2_15binary_iarchiveEN4Core7FMTmaskEEEE18get_const_instanceEv @390
    _ZN5boost13serialization9singletonINS_7archive6detail11iserializerINS2_15binary_iarchiveEN4Core7FMTspecEEEE18get_const_instanceEv @391
    _ZN5boost13serialization9singletonINS_7archive6detail11iserializerINS2_15binary_iarchiveEN4Core8FMTthemeEEEE18get_const_instanceEv @392
    _ZN5boost13serialization9singletonINS_7archive6detail11iserializerINS2_15binary_iarchiveEN4Core9FMTactionEEEE18get_const_instanceEv @393
    _ZN5boost13serialization9singletonINS_7archive6detail11iserializerINS2_15binary_iarchiveEN4Core9FMTboundsIdEEEEE18get_const_instanceEv @394
    _ZN5boost13serialization9singletonINS_7archive6detail11iserializerINS2_15binary_iarchiveEN4Core9FMTboundsIiEEEEE18get_const_instanceEv @395
    _ZN5boost13serialization9singletonINS_7archive6detail11iserializerINS2_15binary_iarchiveEN4Core9FMToutputEEEE18get_const_instanceEv @396
    _ZN5boost13serialization9singletonINS_7archive6detail11iserializerINS2_15binary_iarchiveEN4Core9FMTyieldsEEEE18get_const_instanceEv @397
    _ZN5boost13serialization9singletonINS_7archive6detail11iserializerINS2_15binary_iarchiveEN5Graph13FMTgraphstatsEEEE18get_const_instanceEv @398
    _ZN5boost13serialization9singletonINS_7archive6detail11iserializerINS2_15binary_iarchiveEN5Graph17FMTedgepropertiesEEEE18get_const_instanceEv @399
    _ZN5boost13serialization9singletonINS_7archive6detail11iserializerINS2_15binary_iarchiveEN5Graph19FMTvertexpropertiesEEEE18get_const_instanceEv @400
    _ZN5boost13serialization9singletonINS_7archive6detail11iserializerINS2_15binary_iarchiveEN5Graph8FMTgraphEEEE18get_const_instanceEv @401
    _ZN5boost13serialization9singletonINS_7archive6detail11iserializerINS2_15binary_iarchiveEN6Models10FMTlpmodelEEEE18get_const_instanceEv @402
    _ZN5boost13serialization9singletonINS_7archive6detail11iserializerINS2_15binary_iarchiveEN6Models11FMTlpsolverEEEE18get_const_instanceEv @403
    _ZN5boost13serialization9singletonINS_7archive6detail11iserializerINS2_15binary_iarchiveEN6Models11FMTnssmodelEEEE18get_const_instanceEv @404
    _ZN5boost13serialization9singletonINS_7archive6detail11iserializerINS2_15binary_iarchiveEN6Models11FMTsesmodelEEEE18get_const_instanceEv @405
    _ZN5boost13serialization9singletonINS_7archive6detail11iserializerINS2_15binary_iarchiveEN6Models21FMTserializablematrixEEEE18get_const_instanceEv @406
    _ZN5boost13serialization9singletonINS_7archive6detail11iserializerINS2_15binary_iarchiveEN6Models8FMTmodelEEEE18get_const_instanceEv @407
    _ZN5boost13serialization9singletonINS_7archive6detail11iserializerINS2_15binary_iarchiveEN7Spatial11FMTseseventIN4Core14FMTdevelopmentEEEEEE18get_const_instanceEv @408
    _ZN5boost13serialization9singletonINS_7archive6detail11iserializerINS2_15binary_iarchiveEN7Spatial13FMTcoordinateEEEE18get_const_instanceEv @409
    _ZN5boost13serialization9singletonINS_7archive6detail11iserializerINS2_15binary_iarchiveEN7Spatial16FMTspatialactionEEEE18get_const_instanceEv @410
    _ZN5boost13serialization9singletonINS_7archive6detail11iserializerINS2_15binary_iarchiveEN7Spatial19FMTdisturbancestackEEEE18get_const_instanceEv @411
    _ZN5boost13serialization9singletonINS_7archive6detail11iserializerINS2_15binary_iarchiveEN7Spatial8FMTeventEEEE18get_const_instanceEv @412
    _ZN5boost13serialization9singletonINS_7archive6detail11iserializerINS2_15binary_iarchiveEN7Spatial8FMTlayerIN4Core14FMTdevelopmentEEEEEE18get_const_instanceEv @413
    _ZN5boost13serialization9singletonINS_7archive6detail11iserializerINS2_15binary_iarchiveEN7Spatial9FMTforestEEEE18get_const_instanceEv @414
    _ZN5boost13serialization9singletonINS_7archive6detail11iserializerINS2_15binary_iarchiveENS_11no_propertyEEEE18get_const_instanceEv @415
    _ZN5boost13serialization9singletonINS_7archive6detail11iserializerINS2_15binary_iarchiveENS_14adjacency_listINS_5listSES7_NS_14bidirectionalSEN5Graph19FMTvertexpropertiesENS9_17FMTedgepropertiesENS_11no_propertyES7_EEEEE18get_const_instanceEv @416
    _ZN5boost13serialization9singletonINS_7archive6detail11iserializerINS2_15binary_iarchiveENS_14dynamic_bitsetImSaImEEEEEE18get_const_instanceEv @417
    _ZN5boost13serialization9singletonINS_7archive6detail11iserializerINS2_15binary_iarchiveESt10unique_ptrIN4Core14FMTdevelopmentESt14default_deleteIS8_EEEEE18get_const_instanceEv @418
    _ZN5boost13serialization9singletonINS_7archive6detail11iserializerINS2_15binary_iarchiveESt13unordered_mapImSt6vectorIS7_IiSaIiEESaIS9_EESt4hashImESt8equal_toImESaISt4pairIKmSB_EEEEEE18get_const_instanceEv @419
    _ZN5boost13serialization9singletonINS_7archive6detail11iserializerINS2_15binary_iarchiveESt3mapIN4Core14FMTdevelopmentESt6vectorIdSaIdEESt4lessIS8_ESaISt4pairIKS8_SB_EEEEEE18get_const_instanceEv @420
    _ZN5boost13serialization9singletonINS_7archive6detail11iserializerINS2_15binary_iarchiveESt3mapIN4Core9FMTactionES6_INS7_14FMTdevelopmentESt6vectorIdSaIdEESt4lessIS9_ESaISt4pairIKS9_SC_EEESD_IS8_ESaISF_IKS8_SJ_EEEEEE18get_const_instanceEv @421
    _ZN5boost13serialization9singletonINS_7archive6detail11iserializerINS2_15binary_iarchiveESt3mapIN7Spatial13FMTcoordinateEN4Core14FMTdevelopmentESt4lessIS8_ESaISt4pairIKS8_SA_EEEEEE18get_const_instanceEv @422
    _ZN5boost13serialization9singletonINS_7archive6detail11iserializerINS2_15binary_iarchiveESt3mapIN7Spatial13FMTcoordinateEN4Core14FMTdevelopmentESt4lessIS8_ESaISt4pairIKS8_SA_EEEEEE20get_mutable_instanceEv @423
    _ZN5boost13serialization9singletonINS_7archive6detail11iserializerINS2_15binary_iarchiveESt3mapISsN4Core12FMTyldboundsESt4lessISsESaISt4pairIKSsS8_EEEEEE18get_const_instanceEv @424
    _ZN5boost13serialization9singletonINS_7archive6detail11iserializerINS2_15binary_iarchiveESt3mapISsN4Core7FMTdataESt4lessISsESaISt4pairIKSsS8_EEEEEE18get_const_instanceEv @425
    _ZN5boost13serialization9singletonINS_7archive6detail11iserializerINS2_15binary_iarchiveESt3mapISsS6_ISsdSt4lessISsESaISt4pairIKSsdEEES8_SaIS9_ISA_SD_EEEEEE18get_const_instanceEv @426
    _ZN5boost13serialization9singletonINS_7archive6detail11iserializerINS2_15binary_iarchiveESt3mapISsSsSt4lessISsESaISt4pairIKSsSsEEEEEE18get_const_instanceEv @427
    _ZN5boost13serialization9singletonINS_7archive6detail11iserializerINS2_15binary_iarchiveESt3mapISsSt6vectorIN7Spatial11FMTseseventIN4Core14FMTdevelopmentEEESaISC_EESt4lessISsESaISt4pairIKSsSE_EEEEEE18get_const_instanceEv @428
    _ZN5boost13serialization9singletonINS_7archive6detail11iserializerINS2_15binary_iarchiveESt3mapISsSt6vectorISsSaISsEESt4lessISsESaISt4pairIKSsS9_EEEEEE18get_const_instanceEv @429
    _ZN5boost13serialization9singletonINS_7archive6detail11iserializerINS2_15binary_iarchiveESt3mapISsdSt4lessISsESaISt4pairIKSsdEEEEEE18get_const_instanceEv @430
    _ZN5boost13serialization9singletonINS_7archive6detail11iserializerINS2_15binary_iarchiveESt3setIN7Spatial13FMTcoordinateESt4lessIS8_ESaIS8_EEEEE18get_const_instanceEv @431
    _ZN5boost13serialization9singletonINS_7archive6detail11iserializerINS2_15binary_iarchiveESt4pairIKN4Core14FMTdevelopmentESt6vectorIdSaIdEEEEEE18get_const_instanceEv @432
    _ZN5boost13serialization9singletonINS_7archive6detail11iserializerINS2_15binary_iarchiveESt4pairIKN4Core9FMTactionESt3mapINS7_14FMTdevelopmentESt6vectorIdSaIdEESt4lessISB_ESaIS6_IKSB_SE_EEEEEEE18get_const_instanceEv @433
    _ZN5boost13serialization9singletonINS_7archive6detail11iserializerINS2_15binary_iarchiveESt4pairIKN7Spatial13FMTcoordinateEN4Core14FMTdevelopmentEEEEE18get_const_instanceEv @434
    _ZN5boost13serialization9singletonINS_7archive6detail11iserializerINS2_15binary_iarchiveESt4pairIKSsN4Core12FMTyldboundsEEEEE18get_const_instanceEv @435
    _ZN5boost13serialization9singletonINS_7archive6detail11iserializerINS2_15binary_iarchiveESt4pairIKSsN4Core7FMTdataEEEEE18get_const_instanceEv @436
    _ZN5boost13serialization9singletonINS_7archive6detail11iserializerINS2_15binary_iarchiveESt4pairIKSsSsEEEE18get_const_instanceEv @437
    _ZN5boost13serialization9singletonINS_7archive6detail11iserializerINS2_15binary_iarchiveESt4pairIKSsSt3mapISsdSt4lessISsESaIS6_IS7_dEEEEEEE18get_const_instanceEv @438
    _ZN5boost13serialization9singletonINS_7archive6detail11iserializerINS2_15binary_iarchiveESt4pairIKSsSt6vectorIN7Spatial11FMTseseventIN4Core14FMTdevelopmentEEESaISD_EEEEEE18get_const_instanceEv @439
    _ZN5boost13serialization9singletonINS_7archive6detail11iserializerINS2_15binary_iarchiveESt4pairIKSsSt6vectorISsSaISsEEEEEE18get_const_instanceEv @440
    _ZN5boost13serialization9singletonINS_7archive6detail11iserializerINS2_15binary_iarchiveESt4pairIKSsdEEEE18get_const_instanceEv @441
    _ZN5boost13serialization9singletonINS_7archive6detail11iserializerINS2_15binary_iarchiveESt4pairIKmSt6vectorIS8_IiSaIiEESaISA_EEEEEE18get_const_instanceEv @442
    _ZN5boost13serialization9singletonINS_7archive6detail11iserializerINS2_15binary_iarchiveESt4pairIN4Core7FMTmaskENS7_15FMTyieldhandlerEEEEE18get_const_instanceEv @443
    _ZN5boost13serialization9singletonINS_7archive6detail11iserializerINS2_15binary_iarchiveESt4pairIN4Core7FMTmaskENS7_7FMTforkEEEEE18get_const_instanceEv @444
    _ZN5boost13serialization9singletonINS_7archive6detail11iserializerINS2_15binary_iarchiveESt4pairIN4Core7FMTmaskENS7_7FMTspecEEEEE18get_const_instanceEv @445
    _ZN5boost13serialization9singletonINS_7archive6detail11iserializerINS2_15binary_iarchiveESt4pairIN4Core7FMTmaskESt6vectorIiSaIiEEEEEE18get_const_instanceEv @446
    _ZN5boost13serialization9singletonINS_7archive6detail11iserializerINS2_15binary_iarchiveESt4pairIN4Core7FMTmaskEiEEEE18get_const_instanceEv @447
    _ZN5boost13serialization9singletonINS_7archive6detail11iserializerINS2_15binary_iarchiveESt6vectorIN4Core11FMToperatorESaIS8_EEEEE18get_const_instanceEv @448
    _ZN5boost13serialization9singletonINS_7archive6detail11iserializerINS2_15binary_iarchiveESt6vectorIN4Core11FMTscheduleESaIS8_EEEEE18get_const_instanceEv @449
    _ZN5boost13serialization9singletonINS_7archive6detail11iserializerINS2_15binary_iarchiveESt6vectorIN4Core13FMTconstraintESaIS8_EEEEE18get_const_instanceEv @450
    _ZN5boost13serialization9singletonINS_7archive6detail11iserializerINS2_15binary_iarchiveESt6vectorIN4Core13FMTtransitionESaIS8_EEEEE18get_const_instanceEv @451
    _ZN5boost13serialization9singletonINS_7archive6detail11iserializerINS2_15binary_iarchiveESt6vectorIN4Core15FMToutputsourceESaIS8_EEEEE18get_const_instanceEv @452
    _ZN5boost13serialization9singletonINS_7archive6detail11iserializerINS2_15binary_iarchiveESt6vectorIN4Core17FMTtransitionmaskESaIS8_EEEEE18get_const_instanceEv @453
    _ZN5boost13serialization9singletonINS_7archive6detail11iserializerINS2_15binary_iarchiveESt6vectorIN4Core20FMTactualdevelopmentESaIS8_EEEEE18get_const_instanceEv @454
    _ZN5boost13serialization9singletonINS_7archive6detail11iserializerINS2_15binary_iarchiveESt6vectorIN4Core7FMTmaskESaIS8_EEEEE18get_const_instanceEv @455
    _ZN5boost13serialization9singletonINS_7archive6detail11iserializerINS2_15binary_iarchiveESt6vectorIN4Core8FMTthemeESaIS8_EEEEE18get_const_instanceEv @456
    _ZN5boost13serialization9singletonINS_7archive6detail11iserializerINS2_15binary_iarchiveESt6vectorIN4Core9FMTactionESaIS8_EEEEE18get_const_instanceEv @457
    _ZN5boost13serialization9singletonINS_7archive6detail11iserializerINS2_15binary_iarchiveESt6vectorIN4Core9FMToutputESaIS8_EEEEE18get_const_instanceEv @458
    _ZN5boost13serialization9singletonINS_7archive6detail11iserializerINS2_15binary_iarchiveESt6vectorIN7Spatial11FMTseseventIN4Core14FMTdevelopmentEEESaISB_EEEEE18get_const_instanceEv @459
    _ZN5boost13serialization9singletonINS_7archive6detail11iserializerINS2_15binary_iarchiveESt6vectorIN7Spatial13FMTcoordinateESaIS8_EEEEE18get_const_instanceEv @460
    _ZN5boost13serialization9singletonINS_7archive6detail11iserializerINS2_15binary_iarchiveESt6vectorIN7Spatial16FMTspatialactionESaIS8_EEEEE18get_const_instanceEv @461
    _ZN5boost13serialization9singletonINS_7archive6detail11iserializerINS2_15binary_iarchiveESt6vectorIS6_IiSaIiEESaIS8_EEEEE18get_const_instanceEv @462
    _ZN5boost13serialization9singletonINS_7archive6detail11iserializerINS2_15binary_iarchiveESt6vectorISsSaISsEEEEE18get_const_instanceEv @463
    _ZN5boost13serialization9singletonINS_7archive6detail11iserializerINS2_15binary_iarchiveESt6vectorISt13unordered_mapImS6_IS6_IiSaIiEESaIS9_EESt4hashImESt8equal_toImESaISt4pairIKmSB_EEESaISK_EEEEE18get_const_instanceEv @464
    _ZN5boost13serialization9singletonINS_7archive6detail11iserializerINS2_15binary_iarchiveESt6vectorISt3mapISsS6_IN7Spatial11FMTseseventIN4Core14FMTdevelopmentEEESaISC_EESt4lessISsESaISt4pairIKSsSE_EEESaISL_EEEEE18get_const_instanceEv @465
    _ZN5boost13serialization9singletonINS_7archive6detail11iserializerINS2_15binary_iarchiveESt6vectorISt4pairIN4Core7FMTmaskENS8_15FMTyieldhandlerEESaISB_EEEEE18get_const_instanceEv @466
    _ZN5boost13serialization9singletonINS_7archive6detail11iserializerINS2_15binary_iarchiveESt6vectorISt4pairIN4Core7FMTmaskENS8_7FMTforkEESaISB_EEEEE18get_const_instanceEv @467
    _ZN5boost13serialization9singletonINS_7archive6detail11iserializerINS2_15binary_iarchiveESt6vectorISt4pairIN4Core7FMTmaskENS8_7FMTspecEESaISB_EEEEE18get_const_instanceEv @468
    _ZN5boost13serialization9singletonINS_7archive6detail11iserializerINS2_15binary_iarchiveESt6vectorISt4pairIN4Core7FMTmaskES6_IiSaIiEEESaISC_EEEEE18get_const_instanceEv @469
    _ZN5boost13serialization9singletonINS_7archive6detail11iserializerINS2_15binary_iarchiveESt6vectorISt4pairIN4Core7FMTmaskEiESaISA_EEEEE18get_const_instanceEv @470
    _ZN5boost13serialization9singletonINS_7archive6detail11iserializerINS2_15binary_iarchiveESt6vectorIbSaIbEEEEE18get_const_instanceEv @471
    _ZN5boost13serialization9singletonINS_7archive6detail11iserializerINS2_15binary_iarchiveESt6vectorIdSaIdEEEEE18get_const_instanceEv @472
    _ZN5boost13serialization9singletonINS_7archive6detail11iserializerINS2_15binary_iarchiveESt6vectorIiSaIiEEEEE18get_const_instanceEv @473
    _ZN5boost13serialization9singletonINS_7archive6detail11iserializerINS2_15binary_iarchiveESt6vectorImSaImEEEEE18get_const_instanceEv @474
    _ZN5boost13serialization9singletonINS_7archive6detail11oserializerINS2_15binary_oarchiveEN10Heuristics16FMToperatingareaEEEE18get_const_instanceEv @475
    _ZN5boost13serialization9singletonINS_7archive6detail11oserializerINS2_15binary_oarchiveEN4Core11FMToperatorEEEE18get_const_instanceEv @476
    _ZN5boost13serialization9singletonINS_7archive6detail11oserializerINS2_15binary_oarchiveEN4Core11FMTscheduleEEEE18get_const_instanceEv @477
    _ZN5boost13serialization9singletonINS_7archive6detail11oserializerINS2_15binary_oarchiveEN4Core12FMTageboundsEEEE18get_const_instanceEv @478
    _ZN5boost13serialization9singletonINS_7archive6detail11oserializerINS2_15binary_oarchiveEN4Core12FMTlifespansEEEE18get_const_instanceEv @479
    _ZN5boost13serialization9singletonINS_7archive6detail11oserializerINS2_15binary_oarchiveEN4Core12FMTperboundsEEEE18get_const_instanceEv @480
    _ZN5boost13serialization9singletonINS_7archive6detail11oserializerINS2_15binary_oarchiveEN4Core12FMTyldboundsEEEE18get_const_instanceEv @481
    _ZN5boost13serialization9singletonINS_7archive6detail11oserializerINS2_15binary_oarchiveEN4Core13FMTconstraintEEEE18get_const_instanceEv @482
    _ZN5boost13serialization9singletonINS_7archive6detail11oserializerINS2_15binary_oarchiveEN4Core13FMTlockboundsEEEE18get_const_instanceEv @483
    _ZN5boost13serialization9singletonINS_7archive6detail11oserializerINS2_15binary_oarchiveEN4Core13FMTmaskfilterEEEE18get_const_instanceEv @484
    _ZN5boost13serialization9singletonINS_7archive6detail11oserializerINS2_15binary_oarchiveEN4Core13FMTtransitionEEEE18get_const_instanceEv @485
    _ZN5boost13serialization9singletonINS_7archive6detail11oserializerINS2_15binary_oarchiveEN4Core14FMTdevelopmentEEEE18get_const_instanceEv @486
    _ZN5boost13serialization9singletonINS_7archive6detail11oserializerINS2_15binary_oarchiveEN4Core14FMTdevelopmentEEEE20get_mutable_instanceEv @487
    _ZN5boost13serialization9singletonINS_7archive6detail11oserializerINS2_15binary_oarchiveEN4Core15FMToutputsourceEEEE18get_const_instanceEv @488
    _ZN5boost13serialization9singletonINS_7archive6detail11oserializerINS2_15binary_oarchiveEN4Core15FMTyieldhandlerEEEE18get_const_instanceEv @489
    _ZN5boost13serialization9singletonINS_7archive6detail11oserializerINS2_15binary_oarchiveEN4Core17FMTtransitionmaskEEEE18get_const_instanceEv @490
    _ZN5boost13serialization9singletonINS_7archive6detail11oserializerINS2_15binary_oarchiveEN4Core20FMTactualdevelopmentEEEE18get_const_instanceEv @491
    _ZN5boost13serialization9singletonINS_7archive6detail11oserializerINS2_15binary_oarchiveEN4Core7FMTdataEEEE18get_const_instanceEv @492
    _ZN5boost13serialization9singletonINS_7archive6detail11oserializerINS2_15binary_oarchiveEN4Core7FMTforkEEEE18get_const_instanceEv @493
    _ZN5boost13serialization9singletonINS_7archive6detail11oserializerINS2_15binary_oarchiveEN4Core7FMTlistINS6_15FMTyieldhandlerEEEEEE18get_const_instanceEv @494
    _ZN5boost13serialization9singletonINS_7archive6detail11oserializerINS2_15binary_oarchiveEN4Core7FMTlistINS6_7FMTforkEEEEEE18get_const_instanceEv @495
    _ZN5boost13serialization9singletonINS_7archive6detail11oserializerINS2_15binary_oarchiveEN4Core7FMTlistINS6_7FMTspecEEEEEE18get_const_instanceEv @496
    _ZN5boost13serialization9singletonINS_7archive6detail11oserializerINS2_15binary_oarchiveEN4Core7FMTlistIiEEEEE18get_const_instanceEv @497
    _ZN5boost13serialization9singletonINS_7archive6detail11oserializerINS2_15binary_oarchiveEN4Core7FMTmaskEEEE18get_const_instanceEv @498
    _ZN5boost13serialization9singletonINS_7archive6detail11oserializerINS2_15binary_oarchiveEN4Core7FMTspecEEEE18get_const_instanceEv @499
    _ZN5boost13serialization9singletonINS_7archive6detail11oserializerINS2_15binary_oarchiveEN4Core8FMTthemeEEEE18get_const_instanceEv @500
    _ZN5boost13serialization9singletonINS_7archive6detail11oserializerINS2_15binary_oarchiveEN4Core9FMTactionEEEE18get_const_instanceEv @501
    _ZN5boost13serialization9singletonINS_7archive6detail11oserializerINS2_15binary_oarchiveEN4Core9FMTboundsIdEEEEE18get_const_instanceEv @502
    _ZN5boost13serialization9singletonINS_7archive6detail11oserializerINS2_15binary_oarchiveEN4Core9FMTboundsIiEEEEE18get_const_instanceEv @503
    _ZN5boost13serialization9singletonINS_7archive6detail11oserializerINS2_15binary_oarchiveEN4Core9FMToutputEEEE18get_const_instanceEv @504
    _ZN5boost13serialization9singletonINS_7archive6detail11oserializerINS2_15binary_oarchiveEN4Core9FMTyieldsEEEE18get_const_instanceEv @505
    _ZN5boost13serialization9singletonINS_7archive6detail11oserializerINS2_15binary_oarchiveEN5Graph13FMTgraphstatsEEEE18get_const_instanceEv @506
    _ZN5boost13serialization9singletonINS_7archive6detail11oserializerINS2_15binary_oarchiveEN5Graph17FMTedgepropertiesEEEE18get_const_instanceEv @507
    _ZN5boost13serialization9singletonINS_7archive6detail11oserializerINS2_15binary_oarchiveEN5Graph19FMTvertexpropertiesEEEE18get_const_instanceEv @508
    _ZN5boost13serialization9singletonINS_7archive6detail11oserializerINS2_15binary_oarchiveEN5Graph8FMTgraphEEEE18get_const_instanceEv @509
    _ZN5boost13serialization9singletonINS_7archive6detail11oserializerINS2_15binary_oarchiveEN6Models10FMTlpmodelEEEE18get_const_instanceEv @510
    _ZN5boost13serialization9singletonINS_7archive6detail11oserializerINS2_15binary_oarchiveEN6Models11FMTlpsolverEEEE18get_const_instanceEv @511
    _ZN5boost13serialization9singletonINS_7archive6detail11oserializerINS2_15binary_oarchiveEN6Models11FMTnssmodelEEEE18get_const_instanceEv @512
    _ZN5boost13serialization9singletonINS_7archive6detail11oserializerINS2_15binary_oarchiveEN6Models11FMTsesmodelEEEE18get_const_instanceEv @513
    _ZN5boost13serialization9singletonINS_7archive6detail11oserializerINS2_15binary_oarchiveEN6Models21FMTserializablematrixEEEE18get_const_instanceEv @514
    _ZN5boost13serialization9singletonINS_7archive6detail11oserializerINS2_15binary_oarchiveEN6Models8FMTmodelEEEE18get_const_instanceEv @515
    _ZN5boost13serialization9singletonINS_7archive6detail11oserializerINS2_15binary_oarchiveEN7Spatial11FMTseseventIN4Core14FMTdevelopmentEEEEEE18get_const_instanceEv @516
    _ZN5boost13serialization9singletonINS_7archive6detail11oserializerINS2_15binary_oarchiveEN7Spatial13FMTcoordinateEEEE18get_const_instanceEv @517
    _ZN5boost13serialization9singletonINS_7archive6detail11oserializerINS2_15binary_oarchiveEN7Spatial16FMTspatialactionEEEE18get_const_instanceEv @518
    _ZN5boost13serialization9singletonINS_7archive6detail11oserializerINS2_15binary_oarchiveEN7Spatial19FMTdisturbancestackEEEE18get_const_instanceEv @519
    _ZN5boost13serialization9singletonINS_7archive6detail11oserializerINS2_15binary_oarchiveEN7Spatial8FMTeventEEEE18get_const_instanceEv @520
    _ZN5boost13serialization9singletonINS_7archive6detail11oserializerINS2_15binary_oarchiveEN7Spatial8FMTlayerIN4Core14FMTdevelopmentEEEEEE18get_const_instanceEv @521
    _ZN5boost13serialization9singletonINS_7archive6detail11oserializerINS2_15binary_oarchiveEN7Spatial9FMTforestEEEE18get_const_instanceEv @522
    _ZN5boost13serialization9singletonINS_7archive6detail11oserializerINS2_15binary_oarchiveENS_11no_propertyEEEE18get_const_instanceEv @523
    _ZN5boost13serialization9singletonINS_7archive6detail11oserializerINS2_15binary_oarchiveENS_14adjacency_listINS_5listSES7_NS_14bidirectionalSEN5Graph19FMTvertexpropertiesENS9_17FMTedgepropertiesENS_11no_propertyES7_EEEEE18get_const_instanceEv @524
    _ZN5boost13serialization9singletonINS_7archive6detail11oserializerINS2_15binary_oarchiveENS_14dynamic_bitsetImSaImEEEEEE18get_const_instanceEv @525
    _ZN5boost13serialization9singletonINS_7archive6detail11oserializerINS2_15binary_oarchiveESt10unique_ptrIN4Core14FMTdevelopmentESt14default_deleteIS8_EEEEE18get_const_instanceEv @526
    _ZN5boost13serialization9singletonINS_7archive6detail11oserializerINS2_15binary_oarchiveESt13unordered_mapImSt6vectorIS7_IiSaIiEESaIS9_EESt4hashImESt8equal_toImESaISt4pairIKmSB_EEEEEE18get_const_instanceEv @527
    _ZN5boost13serialization9singletonINS_7archive6detail11oserializerINS2_15binary_oarchiveESt3mapIN4Core14FMTdevelopmentESt6vectorIdSaIdEESt4lessIS8_ESaISt4pairIKS8_SB_EEEEEE18get_const_instanceEv @528
    _ZN5boost13serialization9singletonINS_7archive6detail11oserializerINS2_15binary_oarchiveESt3mapIN4Core9FMTactionES6_INS7_14FMTdevelopmentESt6vectorIdSaIdEESt4lessIS9_ESaISt4pairIKS9_SC_EEESD_IS8_ESaISF_IKS8_SJ_EEEEEE18get_const_instanceEv @529
    _ZN5boost13serialization9singletonINS_7archive6detail11oserializerINS2_15binary_oarchiveESt3mapIN7Spatial13FMTcoordinateEN4Core14FMTdevelopmentESt4lessIS8_ESaISt4pairIKS8_SA_EEEEEE18get_const_instanceEv @530
    _ZN5boost13serialization9singletonINS_7archive6detail11oserializerINS2_15binary_oarchiveESt3mapIN7Spatial13FMTcoordinateEN4Core14FMTdevelopmentESt4lessIS8_ESaISt4pairIKS8_SA_EEEEEE20get_mutable_instanceEv @531
    _ZN5boost13serialization9singletonINS_7archive6detail11oserializerINS2_15binary_oarchiveESt3mapISsN4Core12FMTyldboundsESt4lessISsESaISt4pairIKSsS8_EEEEEE18get_const_instanceEv @532
    _ZN5boost13serialization9singletonINS_7archive6detail11oserializerINS2_15binary_oarchiveESt3mapISsN4Core7FMTdataESt4lessISsESaISt4pairIKSsS8_EEEEEE18get_const_instanceEv @533
    _ZN5boost13serialization9singletonINS_7archive6detail11oserializerINS2_15binary_oarchiveESt3mapISsS6_ISsdSt4lessISsESaISt4pairIKSsdEEES8_SaIS9_ISA_SD_EEEEEE18get_const_instanceEv @534
    _ZN5boost13serialization9singletonINS_7archive6detail11oserializerINS2_15binary_oarchiveESt3mapISsSsSt4lessISsESaISt4pairIKSsSsEEEEEE18get_const_instanceEv @535
    _ZN5boost13serialization9singletonINS_7archive6detail11oserializerINS2_15binary_oarchiveESt3mapISsSt6vectorIN7Spatial11FMTseseventIN4Core14FMTdevelopmentEEESaISC_EESt4lessISsESaISt4pairIKSsSE_EEEEEE18get_const_instanceEv @536
    _ZN5boost13serialization9singletonINS_7archive6detail11oserializerINS2_15binary_oarchiveESt3mapISsSt6vectorISsSaISsEESt4lessISsESaISt4pairIKSsS9_EEEEEE18get_const_instanceEv @537
    _ZN5boost13serialization9singletonINS_7archive6detail11oserializerINS2_15binary_oarchiveESt3mapISsdSt4lessISsESaISt4pairIKSsdEEEEEE18get_const_instanceEv @538
    _ZN5boost13serialization9singletonINS_7archive6detail11oserializerINS2_15binary_oarchiveESt3setIN7Spatial13FMTcoordinateESt4lessIS8_ESaIS8_EEEEE18get_const_instanceEv @539
    _ZN5boost13serialization9singletonINS_7archive6detail11oserializerINS2_15binary_oarchiveESt4pairIKN4Core14FMTdevelopmentESt6vectorIdSaIdEEEEEE18get_const_instanceEv @540
    _ZN5boost13serialization9singletonINS_7archive6detail11oserializerINS2_15binary_oarchiveESt4pairIKN4Core9FMTactionESt3mapINS7_14FMTdevelopmentESt6vectorIdSaIdEESt4lessISB_ESaIS6_IKSB_SE_EEEEEEE18get_const_instanceEv @541
    _ZN5boost13serialization9singletonINS_7archive6detail11oserializerINS2_15binary_oarchiveESt4pairIKN7Spatial13FMTcoordinateEN4Core14FMTdevelopmentEEEEE18get_const_instanceEv @542
    _ZN5boost13serialization9singletonINS_7archive6detail11oserializerINS2_15binary_oarchiveESt4pairIKSsN4Core12FMTyldboundsEEEEE18get_const_instanceEv @543
    _ZN5boost13serialization9singletonINS_7archive6detail11oserializerINS2_15binary_oarchiveESt4pairIKSsN4Core7FMTdataEEEEE18get_const_instanceEv @544
    _ZN5boost13serialization9singletonINS_7archive6detail11oserializerINS2_15binary_oarchiveESt4pairIKSsSsEEEE18get_const_instanceEv @545
    _ZN5boost13serialization9singletonINS_7archive6detail11oserializerINS2_15binary_oarchiveESt4pairIKSsSt3mapISsdSt4lessISsESaIS6_IS7_dEEEEEEE18get_const_instanceEv @546
    _ZN5boost13serialization9singletonINS_7archive6detail11oserializerINS2_15binary_oarchiveESt4pairIKSsSt6vectorIN7Spatial11FMTseseventIN4Core14FMTdevelopmentEEESaISD_EEEEEE18get_const_instanceEv @547
    _ZN5boost13serialization9singletonINS_7archive6detail11oserializerINS2_15binary_oarchiveESt4pairIKSsSt6vectorISsSaISsEEEEEE18get_const_instanceEv @548
    _ZN5boost13serialization9singletonINS_7archive6detail11oserializerINS2_15binary_oarchiveESt4pairIKSsdEEEE18get_const_instanceEv @549
    _ZN5boost13serialization9singletonINS_7archive6detail11oserializerINS2_15binary_oarchiveESt4pairIKmSt6vectorIS8_IiSaIiEESaISA_EEEEEE18get_const_instanceEv @550
    _ZN5boost13serialization9singletonINS_7archive6detail11oserializerINS2_15binary_oarchiveESt4pairIN4Core7FMTmaskENS7_15FMTyieldhandlerEEEEE18get_const_instanceEv @551
    _ZN5boost13serialization9singletonINS_7archive6detail11oserializerINS2_15binary_oarchiveESt4pairIN4Core7FMTmaskENS7_7FMTforkEEEEE18get_const_instanceEv @552
    _ZN5boost13serialization9singletonINS_7archive6detail11oserializerINS2_15binary_oarchiveESt4pairIN4Core7FMTmaskENS7_7FMTspecEEEEE18get_const_instanceEv @553
    _ZN5boost13serialization9singletonINS_7archive6detail11oserializerINS2_15binary_oarchiveESt4pairIN4Core7FMTmaskESt6vectorIiSaIiEEEEEE18get_const_instanceEv @554
    _ZN5boost13serialization9singletonINS_7archive6detail11oserializerINS2_15binary_oarchiveESt4pairIN4Core7FMTmaskEiEEEE18get_const_instanceEv @555
    _ZN5boost13serialization9singletonINS_7archive6detail11oserializerINS2_15binary_oarchiveESt6vectorIN4Core11FMToperatorESaIS8_EEEEE18get_const_instanceEv @556
    _ZN5boost13serialization9singletonINS_7archive6detail11oserializerINS2_15binary_oarchiveESt6vectorIN4Core11FMTscheduleESaIS8_EEEEE18get_const_instanceEv @557
    _ZN5boost13serialization9singletonINS_7archive6detail11oserializerINS2_15binary_oarchiveESt6vectorIN4Core13FMTconstraintESaIS8_EEEEE18get_const_instanceEv @558
    _ZN5boost13serialization9singletonINS_7archive6detail11oserializerINS2_15binary_oarchiveESt6vectorIN4Core13FMTtransitionESaIS8_EEEEE18get_const_instanceEv @559
    _ZN5boost13serialization9singletonINS_7archive6detail11oserializerINS2_15binary_oarchiveESt6vectorIN4Core15FMToutputsourceESaIS8_EEEEE18get_const_instanceEv @560
    _ZN5boost13serialization9singletonINS_7archive6detail11oserializerINS2_15binary_oarchiveESt6vectorIN4Core17FMTtransitionmaskESaIS8_EEEEE18get_const_instanceEv @561
    _ZN5boost13serialization9singletonINS_7archive6detail11oserializerINS2_15binary_oarchiveESt6vectorIN4Core20FMTactualdevelopmentESaIS8_EEEEE18get_const_instanceEv @562
    _ZN5boost13serialization9singletonINS_7archive6detail11oserializerINS2_15binary_oarchiveESt6vectorIN4Core7FMTmaskESaIS8_EEEEE18get_const_instanceEv @563
    _ZN5boost13serialization9singletonINS_7archive6detail11oserializerINS2_15binary_oarchiveESt6vectorIN4Core8FMTthemeESaIS8_EEEEE18get_const_instanceEv @564
    _ZN5boost13serialization9singletonINS_7archive6detail11oserializerINS2_15binary_oarchiveESt6vectorIN4Core9FMTactionESaIS8_EEEEE18get_const_instanceEv @565
    _ZN5boost13serialization9singletonINS_7archive6detail11oserializerINS2_15binary_oarchiveESt6vectorIN4Core9FMToutputESaIS8_EEEEE18get_const_instanceEv @566
    _ZN5boost13serialization9singletonINS_7archive6detail11oserializerINS2_15binary_oarchiveESt6vectorIN7Spatial11FMTseseventIN4Core14FMTdevelopmentEEESaISB_EEEEE18get_const_instanceEv @567
    _ZN5boost13serialization9singletonINS_7archive6detail11oserializerINS2_15binary_oarchiveESt6vectorIN7Spatial13FMTcoordinateESaIS8_EEEEE18get_const_instanceEv @568
    _ZN5boost13serialization9singletonINS_7archive6detail11oserializerINS2_15binary_oarchiveESt6vectorIN7Spatial16FMTspatialactionESaIS8_EEEEE18get_const_instanceEv @569
    _ZN5boost13serialization9singletonINS_7archive6detail11oserializerINS2_15binary_oarchiveESt6vectorIS6_IiSaIiEESaIS8_EEEEE18get_const_instanceEv @570
    _ZN5boost13serialization9singletonINS_7archive6detail11oserializerINS2_15binary_oarchiveESt6vectorISsSaISsEEEEE18get_const_instanceEv @571
    _ZN5boost13serialization9singletonINS_7archive6detail11oserializerINS2_15binary_oarchiveESt6vectorISt13unordered_mapImS6_IS6_IiSaIiEESaIS9_EESt4hashImESt8equal_toImESaISt4pairIKmSB_EEESaISK_EEEEE18get_const_instanceEv @572
    _ZN5boost13serialization9singletonINS_7archive6detail11oserializerINS2_15binary_oarchiveESt6vectorISt3mapISsS6_IN7Spatial11FMTseseventIN4Core14FMTdevelopmentEEESaISC_EESt4lessISsESaISt4pairIKSsSE_EEESaISL_EEEEE18get_const_instanceEv @573
    _ZN5boost13serialization9singletonINS_7archive6detail11oserializerINS2_15binary_oarchiveESt6vectorISt4pairIN4Core7FMTmaskENS8_15FMTyieldhandlerEESaISB_EEEEE18get_const_instanceEv @574
    _ZN5boost13serialization9singletonINS_7archive6detail11oserializerINS2_15binary_oarchiveESt6vectorISt4pairIN4Core7FMTmaskENS8_7FMTforkEESaISB_EEEEE18get_const_instanceEv @575
    _ZN5boost13serialization9singletonINS_7archive6detail11oserializerINS2_15binary_oarchiveESt6vectorISt4pairIN4Core7FMTmaskENS8_7FMTspecEESaISB_EEEEE18get_const_instanceEv @576
    _ZN5boost13serialization9singletonINS_7archive6detail11oserializerINS2_15binary_oarchiveESt6vectorISt4pairIN4Core7FMTmaskES6_IiSaIiEEESaISC_EEEEE18get_const_instanceEv @577
    _ZN5boost13serialization9singletonINS_7archive6detail11oserializerINS2_15binary_oarchiveESt6vectorISt4pairIN4Core7FMTmaskEiESaISA_EEEEE18get_const_instanceEv @578
    _ZN5boost13serialization9singletonINS_7archive6detail11oserializerINS2_15binary_oarchiveESt6vectorIbSaIbEEEEE18get_const_instanceEv @579
    _ZN5boost13serialization9singletonINS_7archive6detail11oserializerINS2_15binary_oarchiveESt6vectorIdSaIdEEEEE18get_const_instanceEv @580
    _ZN5boost13serialization9singletonINS_7archive6detail11oserializerINS2_15binary_oarchiveESt6vectorIiSaIiEEEEE18get_const_instanceEv @581
    _ZN5boost13serialization9singletonINS_7archive6detail11oserializerINS2_15binary_oarchiveESt6vectorImSaImEEEEE18get_const_instanceEv @582
    _ZN5boost13serialization9singletonINS_7archive6detail12extra_detail16guid_initializerIN10Heuristics14FMTlpheuristicEEEE20get_mutable_instanceEv @583
    _ZN5boost13serialization9singletonINS_7archive6detail12extra_detail16guid_initializerIN10Heuristics16FMToperatingareaEEEE20get_mutable_instanceEv @584
    _ZN5boost13serialization9singletonINS_7archive6detail12extra_detail16guid_initializerIN10Heuristics22FMToperatingareaschemeEEEE20get_mutable_instanceEv @585
    _ZN5boost13serialization9singletonINS_7archive6detail12extra_detail16guid_initializerIN10Heuristics25FMToperatingareaschedulerEEEE20get_mutable_instanceEv @586
    _ZN5boost13serialization9singletonINS_7archive6detail12extra_detail16guid_initializerIN4Core11FMTscheduleEEEE20get_mutable_instanceEv @587
    _ZN5boost13serialization9singletonINS_7archive6detail12extra_detail16guid_initializerIN4Core12FMTconstantsEEEE20get_mutable_instanceEv @588
    _ZN5boost13serialization9singletonINS_7archive6detail12extra_detail16guid_initializerIN4Core12FMTlifespansEEEE20get_mutable_instanceEv @589
    _ZN5boost13serialization9singletonINS_7archive6detail12extra_detail16guid_initializerIN4Core13FMTconstraintEEEE20get_mutable_instanceEv @590
    _ZN5boost13serialization9singletonINS_7archive6detail12extra_detail16guid_initializerIN4Core13FMTtransitionEEEE20get_mutable_instanceEv @591
    _ZN5boost13serialization9singletonINS_7archive6detail12extra_detail16guid_initializerIN4Core14FMTdevelopmentEEEE20get_mutable_instanceEv @592
    _ZN5boost13serialization9singletonINS_7archive6detail12extra_detail16guid_initializerIN4Core19FMTfuturdevelopmentEEEE20get_mutable_instanceEv @593
    _ZN5boost13serialization9singletonINS_7archive6detail12extra_detail16guid_initializerIN4Core20FMTactualdevelopmentEEEE20get_mutable_instanceEv @594
    _ZN5boost13serialization9singletonINS_7archive6detail12extra_detail16guid_initializerIN4Core7FMTdataEEEE20get_mutable_instanceEv @595
    _ZN5boost13serialization9singletonINS_7archive6detail12extra_detail16guid_initializerIN4Core7FMTforkEEEE20get_mutable_instanceEv @596
    _ZN5boost13serialization9singletonINS_7archive6detail12extra_detail16guid_initializerIN4Core7FMTmaskEEEE20get_mutable_instanceEv @597
    _ZN5boost13serialization9singletonINS_7archive6detail12extra_detail16guid_initializerIN4Core8FMTthemeEEEE20get_mutable_instanceEv @598
    _ZN5boost13serialization9singletonINS_7archive6detail12extra_detail16guid_initializerIN4Core9FMTactionEEEE20get_mutable_instanceEv @599
    _ZN5boost13serialization9singletonINS_7archive6detail12extra_detail16guid_initializerIN4Core9FMToutputEEEE20get_mutable_instanceEv @600
    _ZN5boost13serialization9singletonINS_7archive6detail12extra_detail16guid_initializerIN4Core9FMTyieldsEEEE20get_mutable_instanceEv @601
    _ZN5boost13serialization9singletonINS_7archive6detail12extra_detail16guid_initializerIN6Models10FMTlpmodelEEEE20get_mutable_instanceEv @602
    _ZN5boost13serialization9singletonINS_7archive6detail12extra_detail16guid_initializerIN6Models11FMTlpsolverEEEE20get_mutable_instanceEv @603
    _ZN5boost13serialization9singletonINS_7archive6detail12extra_detail16guid_initializerIN6Models11FMTnssmodelEEEE20get_mutable_instanceEv @604
    _ZN5boost13serialization9singletonINS_7archive6detail12extra_detail16guid_initializerIN6Models11FMTsesmodelEEEE20get_mutable_instanceEv @605
    _ZN5boost13serialization9singletonINS_7archive6detail12extra_detail16guid_initializerIN6Models8FMTmodelEEEE20get_mutable_instanceEv @606
    _ZN5boost13serialization9singletonINS_7archive6detail19pointer_iserializerINS2_15binary_iarchiveEN4Core14FMTdevelopmentEEEE18get_const_instanceEv @607
    _ZN5boost13serialization9singletonINS_7archive6detail19pointer_iserializerINS2_15binary_iarchiveESt3mapIN7Spatial13FMTcoordinateEN4Core14FMTdevelopmentESt4lessIS8_ESaISt4pairIKS8_SA_EEEEEE18get_const_instanceEv @608
    _ZN5boost13serialization9singletonINS_7archive6detail19pointer_oserializerINS2_15binary_oarchiveEN4Core14FMTdevelopmentEEEE18get_const_instanceEv @609
    _ZN5boost13serialization9singletonINS_7archive6detail19pointer_oserializerINS2_15binary_oarchiveESt3mapIN7Spatial13FMTcoordinateEN4Core14FMTdevelopmentESt4lessIS8_ESaISt4pairIKS8_SA_EEEEEE18get_const_instanceEv @610
    _ZN5boost13serialization9singletonINS_7archive6detail22archive_serializer_mapINS2_15binary_oarchiveEEEE18get_const_instanceEv @611
    _ZN5boost7archive6detail11oserializerINS0_15binary_oarchiveEN10Heuristics16FMToperatingareaEEC1Ev @612
    _ZN5boost7archive6detail11oserializerINS0_15binary_oarchiveEN10Heuristics16FMToperatingareaEEC2Ev @613
    _ZN5boost7archive6detail11oserializerINS0_15binary_oarchiveEN4Core11FMToperatorEEC1Ev @614
    _ZN5boost7archive6detail11oserializerINS0_15binary_oarchiveEN4Core11FMToperatorEEC2Ev @615
    _ZN5boost7archive6detail11oserializerINS0_15binary_oarchiveEN4Core11FMTscheduleEEC1Ev @616
    _ZN5boost7archive6detail11oserializerINS0_15binary_oarchiveEN4Core11FMTscheduleEEC2Ev @617
    _ZN5boost7archive6detail11oserializerINS0_15binary_oarchiveEN4Core12FMTageboundsEEC1Ev @618
    _ZN5boost7archive6detail11oserializerINS0_15binary_oarchiveEN4Core12FMTageboundsEEC2Ev @619
    _ZN5boost7archive6detail11oserializerINS0_15binary_oarchiveEN4Core12FMTlifespansEEC1Ev @620
    _ZN5boost7archive6detail11oserializerINS0_15binary_oarchiveEN4Core12FMTlifespansEEC2Ev @621
    _ZN5boost7archive6detail11oserializerINS0_15binary_oarchiveEN4Core12FMTperboundsEEC1Ev @622
    _ZN5boost7archive6detail11oserializerINS0_15binary_oarchiveEN4Core12FMTperboundsEEC2Ev @623
    _ZN5boost7archive6detail11oserializerINS0_15binary_oarchiveEN4Core12FMTyldboundsEEC1Ev @624
    _ZN5boost7archive6detail11oserializerINS0_15binary_oarchiveEN4Core12FMTyldboundsEEC2Ev @625
    _ZN5boost7archive6detail11oserializerINS0_15binary_oarchiveEN4Core13FMTconstraintEEC1Ev @626
    _ZN5boost7archive6detail11oserializerINS0_15binary_oarchiveEN4Core13FMTconstraintEEC2Ev @627
    _ZN5boost7archive6detail11oserializerINS0_15binary_oarchiveEN4Core13FMTlockboundsEEC1Ev @628
    _ZN5boost7archive6detail11oserializerINS0_15binary_oarchiveEN4Core13FMTlockboundsEEC2Ev @629
    _ZN5boost7archive6detail11oserializerINS0_15binary_oarchiveEN4Core13FMTmaskfilterEEC1Ev @630
    _ZN5boost7archive6detail11oserializerINS0_15binary_oarchiveEN4Core13FMTmaskfilterEEC2Ev @631
    _ZN5boost7archive6detail11oserializerINS0_15binary_oarchiveEN4Core13FMTtransitionEEC1Ev @632
    _ZN5boost7archive6detail11oserializerINS0_15binary_oarchiveEN4Core13FMTtransitionEEC2Ev @633
    _ZN5boost7archive6detail11oserializerINS0_15binary_oarchiveEN4Core14FMTdevelopmentEEC1Ev @634
    _ZN5boost7archive6detail11oserializerINS0_15binary_oarchiveEN4Core14FMTdevelopmentEEC2Ev @635
    _ZN5boost7archive6detail11oserializerINS0_15binary_oarchiveEN4Core15FMToutputsourceEEC1Ev @636
    _ZN5boost7archive6detail11oserializerINS0_15binary_oarchiveEN4Core15FMToutputsourceEEC2Ev @637
    _ZN5boost7archive6detail11oserializerINS0_15binary_oarchiveEN4Core15FMTyieldhandlerEEC1Ev @638
    _ZN5boost7archive6detail11oserializerINS0_15binary_oarchiveEN4Core15FMTyieldhandlerEEC2Ev @639
    _ZN5boost7archive6detail11oserializerINS0_15binary_oarchiveEN4Core17FMTtransitionmaskEEC1Ev @640
    _ZN5boost7archive6detail11oserializerINS0_15binary_oarchiveEN4Core17FMTtransitionmaskEEC2Ev @641
    _ZN5boost7archive6detail11oserializerINS0_15binary_oarchiveEN4Core20FMTactualdevelopmentEEC1Ev @642
    _ZN5boost7archive6detail11oserializerINS0_15binary_oarchiveEN4Core20FMTactualdevelopmentEEC2Ev @643
    _ZN5boost7archive6detail11oserializerINS0_15binary_oarchiveEN4Core7FMTdataEEC1Ev @644
    _ZN5boost7archive6detail11oserializerINS0_15binary_oarchiveEN4Core7FMTdataEEC2Ev @645
    _ZN5boost7archive6detail11oserializerINS0_15binary_oarchiveEN4Core7FMTforkEEC1Ev @646
    _ZN5boost7archive6detail11oserializerINS0_15binary_oarchiveEN4Core7FMTforkEEC2Ev @647
    _ZN5boost7archive6detail11oserializerINS0_15binary_oarchiveEN4Core7FMTlistINS4_15FMTyieldhandlerEEEEC1Ev @648
    _ZN5boost7archive6detail11oserializerINS0_15binary_oarchiveEN4Core7FMTlistINS4_15FMTyieldhandlerEEEEC2Ev @649
    _ZN5boost7archive6detail11oserializerINS0_15binary_oarchiveEN4Core7FMTlistINS4_7FMTforkEEEEC1Ev @650
    _ZN5boost7archive6detail11oserializerINS0_15binary_oarchiveEN4Core7FMTlistINS4_7FMTforkEEEEC2Ev @651
    _ZN5boost7archive6detail11oserializerINS0_15binary_oarchiveEN4Core7FMTlistINS4_7FMTspecEEEEC1Ev @652
    _ZN5boost7archive6detail11oserializerINS0_15binary_oarchiveEN4Core7FMTlistINS4_7FMTspecEEEEC2Ev @653
    _ZN5boost7archive6detail11oserializerINS0_15binary_oarchiveEN4Core7FMTlistIiEEEC1Ev @654
    _ZN5boost7archive6detail11oserializerINS0_15binary_oarchiveEN4Core7FMTlistIiEEEC2Ev @655
    _ZN5boost7archive6detail11oserializerINS0_15binary_oarchiveEN4Core7FMTmaskEEC1Ev @656
    _ZN5boost7archive6detail11oserializerINS0_15binary_oarchiveEN4Core7FMTmaskEEC2Ev @657
    _ZN5boost7archive6detail11oserializerINS0_15binary_oarchiveEN4Core7FMTspecEEC1Ev @658
    _ZN5boost7archive6detail11oserializerINS0_15binary_oarchiveEN4Core7FMTspecEEC2Ev @659
    _ZN5boost7archive6detail11oserializerINS0_15binary_oarchiveEN4Core8FMTthemeEEC1Ev @660
    _ZN5boost7archive6detail11oserializerINS0_15binary_oarchiveEN4Core8FMTthemeEEC2Ev @661
    _ZN5boost7archive6detail11oserializerINS0_15binary_oarchiveEN4Core9FMTactionEEC1Ev @662
    _ZN5boost7archive6detail11oserializerINS0_15binary_oarchiveEN4Core9FMTactionEEC2Ev @663
    _ZN5boost7archive6detail11oserializerINS0_15binary_oarchiveEN4Core9FMTboundsIdEEEC1Ev @664
    _ZN5boost7archive6detail11oserializerINS0_15binary_oarchiveEN4Core9FMTboundsIdEEEC2Ev @665
    _ZN5boost7archive6detail11oserializerINS0_15binary_oarchiveEN4Core9FMTboundsIiEEEC1Ev @666
    _ZN5boost7archive6detail11oserializerINS0_15binary_oarchiveEN4Core9FMTboundsIiEEEC2Ev @667
    _ZN5boost7archive6detail11oserializerINS0_15binary_oarchiveEN4Core9FMToutputEEC1Ev @668
    _ZN5boost7archive6detail11oserializerINS0_15binary_oarchiveEN4Core9FMToutputEEC2Ev @669
    _ZN5boost7archive6detail11oserializerINS0_15binary_oarchiveEN4Core9FMTyieldsEEC1Ev @670
    _ZN5boost7archive6detail11oserializerINS0_15binary_oarchiveEN4Core9FMTyieldsEEC2Ev @671
    _ZN5boost7archive6detail11oserializerINS0_15binary_oarchiveEN5Graph13FMTgraphstatsEEC1Ev @672
    _ZN5boost7archive6detail11oserializerINS0_15binary_oarchiveEN5Graph13FMTgraphstatsEEC2Ev @673
    _ZN5boost7archive6detail11oserializerINS0_15binary_oarchiveEN5Graph17FMTedgepropertiesEEC1Ev @674
    _ZN5boost7archive6detail11oserializerINS0_15binary_oarchiveEN5Graph17FMTedgepropertiesEEC2Ev @675
    _ZN5boost7archive6detail11oserializerINS0_15binary_oarchiveEN5Graph19FMTvertexpropertiesEEC1Ev @676
    _ZN5boost7archive6detail11oserializerINS0_15binary_oarchiveEN5Graph19FMTvertexpropertiesEEC2Ev @677
    _ZN5boost7archive6detail11oserializerINS0_15binary_oarchiveEN5Graph8FMTgraphEEC1Ev @678
    _ZN5boost7archive6detail11oserializerINS0_15binary_oarchiveEN5Graph8FMTgraphEEC2Ev @679
    _ZN5boost7archive6detail11oserializerINS0_15binary_oarchiveEN6Models10FMTlpmodelEEC1Ev @680
    _ZN5boost7archive6detail11oserializerINS0_15binary_oarchiveEN6Models10FMTlpmodelEEC2Ev @681
    _ZN5boost7archive6detail11oserializerINS0_15binary_oarchiveEN6Models11FMTlpsolverEEC1Ev @682
    _ZN5boost7archive6detail11oserializerINS0_15binary_oarchiveEN6Models11FMTlpsolverEEC2Ev @683
    _ZN5boost7archive6detail11oserializerINS0_15binary_oarchiveEN6Models11FMTnssmodelEEC1Ev @684
    _ZN5boost7archive6detail11oserializerINS0_15binary_oarchiveEN6Models11FMTnssmodelEEC2Ev @685
    _ZN5boost7archive6detail11oserializerINS0_15binary_oarchiveEN6Models11FMTsesmodelEEC1Ev @686
    _ZN5boost7archive6detail11oserializerINS0_15binary_oarchiveEN6Models11FMTsesmodelEEC2Ev @687
    _ZN5boost7archive6detail11oserializerINS0_15binary_oarchiveEN6Models21FMTserializablematrixEEC1Ev @688
    _ZN5boost7archive6detail11oserializerINS0_15binary_oarchiveEN6Models21FMTserializablematrixEEC2Ev @689
    _ZN5boost7archive6detail11oserializerINS0_15binary_oarchiveEN6Models8FMTmodelEEC1Ev @690
    _ZN5boost7archive6detail11oserializerINS0_15binary_oarchiveEN6Models8FMTmodelEEC2Ev @691
    _ZN5boost7archive6detail11oserializerINS0_15binary_oarchiveEN7Spatial11FMTseseventIN4Core14FMTdevelopmentEEEEC1Ev @692
    _ZN5boost7archive6detail11oserializerINS0_15binary_oarchiveEN7Spatial11FMTseseventIN4Core14FMTdevelopmentEEEEC2Ev @693
    _ZN5boost7archive6detail11oserializerINS0_15binary_oarchiveEN7Spatial13FMTcoordinateEEC1Ev @694
    _ZN5boost7archive6detail11oserializerINS0_15binary_oarchiveEN7Spatial13FMTcoordinateEEC2Ev @695
    _ZN5boost7archive6detail11oserializerINS0_15binary_oarchiveEN7Spatial16FMTspatialactionEEC1Ev @696
    _ZN5boost7archive6detail11oserializerINS0_15binary_oarchiveEN7Spatial16FMTspatialactionEEC2Ev @697
    _ZN5boost7archive6detail11oserializerINS0_15binary_oarchiveEN7Spatial19FMTdisturbancestackEEC1Ev @698
    _ZN5boost7archive6detail11oserializerINS0_15binary_oarchiveEN7Spatial19FMTdisturbancestackEEC2Ev @699
    _ZN5boost7archive6detail11oserializerINS0_15binary_oarchiveEN7Spatial8FMTeventEEC1Ev @700
    _ZN5boost7archive6detail11oserializerINS0_15binary_oarchiveEN7Spatial8FMTeventEEC2Ev @701
    _ZN5boost7archive6detail11oserializerINS0_15binary_oarchiveEN7Spatial8FMTlayerIN4Core14FMTdevelopmentEEEEC1Ev @702
    _ZN5boost7archive6detail11oserializerINS0_15binary_oarchiveEN7Spatial8FMTlayerIN4Core14FMTdevelopmentEEEEC2Ev @703
    _ZN5boost7archive6detail11oserializerINS0_15binary_oarchiveEN7Spatial9FMTforestEEC1Ev @704
    _ZN5boost7archive6detail11oserializerINS0_15binary_oarchiveEN7Spatial9FMTforestEEC2Ev @705
    _ZN5boost7archive6detail11oserializerINS0_15binary_oarchiveENS_11no_propertyEEC1Ev @706
    _ZN5boost7archive6detail11oserializerINS0_15binary_oarchiveENS_11no_propertyEEC2Ev @707
    _ZN5boost7archive6detail11oserializerINS0_15binary_oarchiveENS_14adjacency_listINS_5listSES5_NS_14bidirectionalSEN5Graph19FMTvertexpropertiesENS7_17FMTedgepropertiesENS_11no_propertyES5_EEEC1Ev @708
    _ZN5boost7archive6detail11oserializerINS0_15binary_oarchiveENS_14adjacency_listINS_5listSES5_NS_14bidirectionalSEN5Graph19FMTvertexpropertiesENS7_17FMTedgepropertiesENS_11no_propertyES5_EEEC2Ev @709
    _ZN5boost7archive6detail11oserializerINS0_15binary_oarchiveENS_14dynamic_bitsetImSaImEEEEC1Ev @710
    _ZN5boost7archive6detail11oserializerINS0_15binary_oarchiveENS_14dynamic_bitsetImSaImEEEEC2Ev @711
    _ZN5boost7archive6detail11oserializerINS0_15binary_oarchiveESt10unique_ptrIN4Core14FMTdevelopmentESt14default_deleteIS6_EEEC1Ev @712
    _ZN5boost7archive6detail11oserializerINS0_15binary_oarchiveESt10unique_ptrIN4Core14FMTdevelopmentESt14default_deleteIS6_EEEC2Ev @713
    _ZN5boost7archive6detail11oserializerINS0_15binary_oarchiveESt13unordered_mapImSt6vectorIS5_IiSaIiEESaIS7_EESt4hashImESt8equal_toImESaISt4pairIKmS9_EEEEC1Ev @714
    _ZN5boost7archive6detail11oserializerINS0_15binary_oarchiveESt13unordered_mapImSt6vectorIS5_IiSaIiEESaIS7_EESt4hashImESt8equal_toImESaISt4pairIKmS9_EEEEC2Ev @715
    _ZN5boost7archive6detail11oserializerINS0_15binary_oarchiveESt3mapIN4Core14FMTdevelopmentESt6vectorIdSaIdEESt4lessIS6_ESaISt4pairIKS6_S9_EEEEC1Ev @716
    _ZN5boost7archive6detail11oserializerINS0_15binary_oarchiveESt3mapIN4Core14FMTdevelopmentESt6vectorIdSaIdEESt4lessIS6_ESaISt4pairIKS6_S9_EEEEC2Ev @717
    _ZN5boost7archive6detail11oserializerINS0_15binary_oarchiveESt3mapIN4Core9FMTactionES4_INS5_14FMTdevelopmentESt6vectorIdSaIdEESt4lessIS7_ESaISt4pairIKS7_SA_EEESB_IS6_ESaISD_IKS6_SH_EEEEC1Ev @718
    _ZN5boost7archive6detail11oserializerINS0_15binary_oarchiveESt3mapIN4Core9FMTactionES4_INS5_14FMTdevelopmentESt6vectorIdSaIdEESt4lessIS7_ESaISt4pairIKS7_SA_EEESB_IS6_ESaISD_IKS6_SH_EEEEC2Ev @719
    _ZN5boost7archive6detail11oserializerINS0_15binary_oarchiveESt3mapIN7Spatial13FMTcoordinateEN4Core14FMTdevelopmentESt4lessIS6_ESaISt4pairIKS6_S8_EEEEC1Ev @720
    _ZN5boost7archive6detail11oserializerINS0_15binary_oarchiveESt3mapIN7Spatial13FMTcoordinateEN4Core14FMTdevelopmentESt4lessIS6_ESaISt4pairIKS6_S8_EEEEC2Ev @721
    _ZN5boost7archive6detail11oserializerINS0_15binary_oarchiveESt3mapISsN4Core12FMTyldboundsESt4lessISsESaISt4pairIKSsS6_EEEEC1Ev @722
    _ZN5boost7archive6detail11oserializerINS0_15binary_oarchiveESt3mapISsN4Core12FMTyldboundsESt4lessISsESaISt4pairIKSsS6_EEEEC2Ev @723
    _ZN5boost7archive6detail11oserializerINS0_15binary_oarchiveESt3mapISsN4Core7FMTdataESt4lessISsESaISt4pairIKSsS6_EEEEC1Ev @724
    _ZN5boost7archive6detail11oserializerINS0_15binary_oarchiveESt3mapISsN4Core7FMTdataESt4lessISsESaISt4pairIKSsS6_EEEEC2Ev @725
    _ZN5boost7archive6detail11oserializerINS0_15binary_oarchiveESt3mapISsS4_ISsdSt4lessISsESaISt4pairIKSsdEEES6_SaIS7_IS8_SB_EEEEC1Ev @726
    _ZN5boost7archive6detail11oserializerINS0_15binary_oarchiveESt3mapISsS4_ISsdSt4lessISsESaISt4pairIKSsdEEES6_SaIS7_IS8_SB_EEEEC2Ev @727
    _ZN5boost7archive6detail11oserializerINS0_15binary_oarchiveESt3mapISsSsSt4lessISsESaISt4pairIKSsSsEEEEC1Ev @728
    _ZN5boost7archive6detail11oserializerINS0_15binary_oarchiveESt3mapISsSsSt4lessISsESaISt4pairIKSsSsEEEEC2Ev @729
    _ZN5boost7archive6detail11oserializerINS0_15binary_oarchiveESt3mapISsSt6vectorIN7Spatial11FMTseseventIN4Core14FMTdevelopmentEEESaISA_EESt4lessISsESaISt4pairIKSsSC_EEEEC1Ev @730
    _ZN5boost7archive6detail11oserializerINS0_15binary_oarchiveESt3mapISsSt6vectorIN7Spatial11FMTseseventIN4Core14FMTdevelopmentEEESaISA_EESt4lessISsESaISt4pairIKSsSC_EEEEC2Ev @731
    _ZN5boost7archive6detail11oserializerINS0_15binary_oarchiveESt3mapISsSt6vectorISsSaISsEESt4lessISsESaISt4pairIKSsS7_EEEEC1Ev @732
    _ZN5boost7archive6detail11oserializerINS0_15binary_oarchiveESt3mapISsSt6vectorISsSaISsEESt4lessISsESaISt4pairIKSsS7_EEEEC2Ev @733
    _ZN5boost7archive6detail11oserializerINS0_15binary_oarchiveESt3mapISsdSt4lessISsESaISt4pairIKSsdEEEEC1Ev @734
    _ZN5boost7archive6detail11oserializerINS0_15binary_oarchiveESt3mapISsdSt4lessISsESaISt4pairIKSsdEEEEC2Ev @735
    _ZN5boost7archive6detail11oserializerINS0_15binary_oarchiveESt3setIN7Spatial13FMTcoordinateESt4lessIS6_ESaIS6_EEEC1Ev @736
    _ZN5boost7archive6detail11oserializerINS0_15binary_oarchiveESt3setIN7Spatial13FMTcoordinateESt4lessIS6_ESaIS6_EEEC2Ev @737
    _ZN5boost7archive6detail11oserializerINS0_15binary_oarchiveESt4pairIKN4Core14FMTdevelopmentESt6vectorIdSaIdEEEEC1Ev @738
    _ZN5boost7archive6detail11oserializerINS0_15binary_oarchiveESt4pairIKN4Core14FMTdevelopmentESt6vectorIdSaIdEEEEC2Ev @739
    _ZN5boost7archive6detail11oserializerINS0_15binary_oarchiveESt4pairIKN4Core9FMTactionESt3mapINS5_14FMTdevelopmentESt6vectorIdSaIdEESt4lessIS9_ESaIS4_IKS9_SC_EEEEEC1Ev @740
    _ZN5boost7archive6detail11oserializerINS0_15binary_oarchiveESt4pairIKN4Core9FMTactionESt3mapINS5_14FMTdevelopmentESt6vectorIdSaIdEESt4lessIS9_ESaIS4_IKS9_SC_EEEEEC2Ev @741
    _ZN5boost7archive6detail11oserializerINS0_15binary_oarchiveESt4pairIKN7Spatial13FMTcoordinateEN4Core14FMTdevelopmentEEEC1Ev @742
    _ZN5boost7archive6detail11oserializerINS0_15binary_oarchiveESt4pairIKN7Spatial13FMTcoordinateEN4Core14FMTdevelopmentEEEC2Ev @743
    _ZN5boost7archive6detail11oserializerINS0_15binary_oarchiveESt4pairIKSsN4Core12FMTyldboundsEEEC1Ev @744
    _ZN5boost7archive6detail11oserializerINS0_15binary_oarchiveESt4pairIKSsN4Core12FMTyldboundsEEEC2Ev @745
    _ZN5boost7archive6detail11oserializerINS0_15binary_oarchiveESt4pairIKSsN4Core7FMTdataEEEC1Ev @746
    _ZN5boost7archive6detail11oserializerINS0_15binary_oarchiveESt4pairIKSsN4Core7FMTdataEEEC2Ev @747
    _ZN5boost7archive6detail11oserializerINS0_15binary_oarchiveESt4pairIKSsSsEEC1Ev @748
    _ZN5boost7archive6detail11oserializerINS0_15binary_oarchiveESt4pairIKSsSsEEC2Ev @749
    _ZN5boost7archive6detail11oserializerINS0_15binary_oarchiveESt4pairIKSsSt3mapISsdSt4lessISsESaIS4_IS5_dEEEEEC1Ev @750
    _ZN5boost7archive6detail11oserializerINS0_15binary_oarchiveESt4pairIKSsSt3mapISsdSt4lessISsESaIS4_IS5_dEEEEEC2Ev @751
    _ZN5boost7archive6detail11oserializerINS0_15binary_oarchiveESt4pairIKSsSt6vectorIN7Spatial11FMTseseventIN4Core14FMTdevelopmentEEESaISB_EEEEC1Ev @752
    _ZN5boost7archive6detail11oserializerINS0_15binary_oarchiveESt4pairIKSsSt6vectorIN7Spatial11FMTseseventIN4Core14FMTdevelopmentEEESaISB_EEEEC2Ev @753
    _ZN5boost7archive6detail11oserializerINS0_15binary_oarchiveESt4pairIKSsSt6vectorISsSaISsEEEEC1Ev @754
    _ZN5boost7archive6detail11oserializerINS0_15binary_oarchiveESt4pairIKSsSt6vectorISsSaISsEEEEC2Ev @755
    _ZN5boost7archive6detail11oserializerINS0_15binary_oarchiveESt4pairIKSsdEEC1Ev @756
    _ZN5boost7archive6detail11oserializerINS0_15binary_oarchiveESt4pairIKSsdEEC2Ev @757
    _ZN5boost7archive6detail11oserializerINS0_15binary_oarchiveESt4pairIKmSt6vectorIS6_IiSaIiEESaIS8_EEEEC1Ev @758
    _ZN5boost7archive6detail11oserializerINS0_15binary_oarchiveESt4pairIKmSt6vectorIS6_IiSaIiEESaIS8_EEEEC2Ev @759
    _ZN5boost7archive6detail11oserializerINS0_15binary_oarchiveESt4pairIN4Core7FMTmaskENS5_15FMTyieldhandlerEEEC1Ev @760
    _ZN5boost7archive6detail11oserializerINS0_15binary_oarchiveESt4pairIN4Core7FMTmaskENS5_15FMTyieldhandlerEEEC2Ev @761
    _ZN5boost7archive6detail11oserializerINS0_15binary_oarchiveESt4pairIN4Core7FMTmaskENS5_7FMTforkEEEC1Ev @762
    _ZN5boost7archive6detail11oserializerINS0_15binary_oarchiveESt4pairIN4Core7FMTmaskENS5_7FMTforkEEEC2Ev @763
    _ZN5boost7archive6detail11oserializerINS0_15binary_oarchiveESt4pairIN4Core7FMTmaskENS5_7FMTspecEEEC1Ev @764
    _ZN5boost7archive6detail11oserializerINS0_15binary_oarchiveESt4pairIN4Core7FMTmaskENS5_7FMTspecEEEC2Ev @765
    _ZN5boost7archive6detail11oserializerINS0_15binary_oarchiveESt4pairIN4Core7FMTmaskESt6vectorIiSaIiEEEEC1Ev @766
    _ZN5boost7archive6detail11oserializerINS0_15binary_oarchiveESt4pairIN4Core7FMTmaskESt6vectorIiSaIiEEEEC2Ev @767
    _ZN5boost7archive6detail11oserializerINS0_15binary_oarchiveESt4pairIN4Core7FMTmaskEiEEC1Ev @768
    _ZN5boost7archive6detail11oserializerINS0_15binary_oarchiveESt4pairIN4Core7FMTmaskEiEEC2Ev @769
    _ZN5boost7archive6detail11oserializerINS0_15binary_oarchiveESt6vectorIN4Core11FMToperatorESaIS6_EEEC1Ev @770
    _ZN5boost7archive6detail11oserializerINS0_15binary_oarchiveESt6vectorIN4Core11FMToperatorESaIS6_EEEC2Ev @771
    _ZN5boost7archive6detail11oserializerINS0_15binary_oarchiveESt6vectorIN4Core11FMTscheduleESaIS6_EEEC1Ev @772
    _ZN5boost7archive6detail11oserializerINS0_15binary_oarchiveESt6vectorIN4Core11FMTscheduleESaIS6_EEEC2Ev @773
    _ZN5boost7archive6detail11oserializerINS0_15binary_oarchiveESt6vectorIN4Core13FMTconstraintESaIS6_EEEC1Ev @774
    _ZN5boost7archive6detail11oserializerINS0_15binary_oarchiveESt6vectorIN4Core13FMTconstraintESaIS6_EEEC2Ev @775
    _ZN5boost7archive6detail11oserializerINS0_15binary_oarchiveESt6vectorIN4Core13FMTtransitionESaIS6_EEEC1Ev @776
    _ZN5boost7archive6detail11oserializerINS0_15binary_oarchiveESt6vectorIN4Core13FMTtransitionESaIS6_EEEC2Ev @777
    _ZN5boost7archive6detail11oserializerINS0_15binary_oarchiveESt6vectorIN4Core15FMToutputsourceESaIS6_EEEC1Ev @778
    _ZN5boost7archive6detail11oserializerINS0_15binary_oarchiveESt6vectorIN4Core15FMToutputsourceESaIS6_EEEC2Ev @779
    _ZN5boost7archive6detail11oserializerINS0_15binary_oarchiveESt6vectorIN4Core17FMTtransitionmaskESaIS6_EEEC1Ev @780
    _ZN5boost7archive6detail11oserializerINS0_15binary_oarchiveESt6vectorIN4Core17FMTtransitionmaskESaIS6_EEEC2Ev @781
    _ZN5boost7archive6detail11oserializerINS0_15binary_oarchiveESt6vectorIN4Core20FMTactualdevelopmentESaIS6_EEEC1Ev @782
    _ZN5boost7archive6detail11oserializerINS0_15binary_oarchiveESt6vectorIN4Core20FMTactualdevelopmentESaIS6_EEEC2Ev @783
    _ZN5boost7archive6detail11oserializerINS0_15binary_oarchiveESt6vectorIN4Core7FMTmaskESaIS6_EEEC1Ev @784
    _ZN5boost7archive6detail11oserializerINS0_15binary_oarchiveESt6vectorIN4Core7FMTmaskESaIS6_EEEC2Ev @785
    _ZN5boost7archive6detail11oserializerINS0_15binary_oarchiveESt6vectorIN4Core8FMTthemeESaIS6_EEEC1Ev @786
    _ZN5boost7archive6detail11oserializerINS0_15binary_oarchiveESt6vectorIN4Core8FMTthemeESaIS6_EEEC2Ev @787
    _ZN5boost7archive6detail11oserializerINS0_15binary_oarchiveESt6vectorIN4Core9FMTactionESaIS6_EEEC1Ev @788
    _ZN5boost7archive6detail11oserializerINS0_15binary_oarchiveESt6vectorIN4Core9FMTactionESaIS6_EEEC2Ev @789
    _ZN5boost7archive6detail11oserializerINS0_15binary_oarchiveESt6vectorIN4Core9FMToutputESaIS6_EEEC1Ev @790
    _ZN5boost7archive6detail11oserializerINS0_15binary_oarchiveESt6vectorIN4Core9FMToutputESaIS6_EEEC2Ev @791
    _ZN5boost7archive6detail11oserializerINS0_15binary_oarchiveESt6vectorIN7Spatial11FMTseseventIN4Core14FMTdevelopmentEEESaIS9_EEEC1Ev @792
    _ZN5boost7archive6detail11oserializerINS0_15binary_oarchiveESt6vectorIN7Spatial11FMTseseventIN4Core14FMTdevelopmentEEESaIS9_EEEC2Ev @793
    _ZN5boost7archive6detail11oserializerINS0_15binary_oarchiveESt6vectorIN7Spatial13FMTcoordinateESaIS6_EEEC1Ev @794
    _ZN5boost7archive6detail11oserializerINS0_15binary_oarchiveESt6vectorIN7Spatial13FMTcoordinateESaIS6_EEEC2Ev @795
    _ZN5boost7archive6detail11oserializerINS0_15binary_oarchiveESt6vectorIN7Spatial16FMTspatialactionESaIS6_EEEC1Ev @796
    _ZN5boost7archive6detail11oserializerINS0_15binary_oarchiveESt6vectorIN7Spatial16FMTspatialactionESaIS6_EEEC2Ev @797
    _ZN5boost7archive6detail11oserializerINS0_15binary_oarchiveESt6vectorIS4_IiSaIiEESaIS6_EEEC1Ev @798
    _ZN5boost7archive6detail11oserializerINS0_15binary_oarchiveESt6vectorIS4_IiSaIiEESaIS6_EEEC2Ev @799
    _ZN5boost7archive6detail11oserializerINS0_15binary_oarchiveESt6vectorISsSaISsEEEC1Ev @800
    _ZN5boost7archive6detail11oserializerINS0_15binary_oarchiveESt6vectorISsSaISsEEEC2Ev @801
    _ZN5boost7archive6detail11oserializerINS0_15binary_oarchiveESt6vectorISt13unordered_mapImS4_IS4_IiSaIiEESaIS7_EESt4hashImESt8equal_toImESaISt4pairIKmS9_EEESaISI_EEEC1Ev @802
    _ZN5boost7archive6detail11oserializerINS0_15binary_oarchiveESt6vectorISt13unordered_mapImS4_IS4_IiSaIiEESaIS7_EESt4hashImESt8equal_toImESaISt4pairIKmS9_EEESaISI_EEEC2Ev @803
    _ZN5boost7archive6detail11oserializerINS0_15binary_oarchiveESt6vectorISt3mapISsS4_IN7Spatial11FMTseseventIN4Core14FMTdevelopmentEEESaISA_EESt4lessISsESaISt4pairIKSsSC_EEESaISJ_EEEC1Ev @804
    _ZN5boost7archive6detail11oserializerINS0_15binary_oarchiveESt6vectorISt3mapISsS4_IN7Spatial11FMTseseventIN4Core14FMTdevelopmentEEESaISA_EESt4lessISsESaISt4pairIKSsSC_EEESaISJ_EEEC2Ev @805
    _ZN5boost7archive6detail11oserializerINS0_15binary_oarchiveESt6vectorISt4pairIN4Core7FMTmaskENS6_15FMTyieldhandlerEESaIS9_EEEC1Ev @806
    _ZN5boost7archive6detail11oserializerINS0_15binary_oarchiveESt6vectorISt4pairIN4Core7FMTmaskENS6_15FMTyieldhandlerEESaIS9_EEEC2Ev @807
    _ZN5boost7archive6detail11oserializerINS0_15binary_oarchiveESt6vectorISt4pairIN4Core7FMTmaskENS6_7FMTforkEESaIS9_EEEC1Ev @808
    _ZN5boost7archive6detail11oserializerINS0_15binary_oarchiveESt6vectorISt4pairIN4Core7FMTmaskENS6_7FMTforkEESaIS9_EEEC2Ev @809
    _ZN5boost7archive6detail11oserializerINS0_15binary_oarchiveESt6vectorISt4pairIN4Core7FMTmaskENS6_7FMTspecEESaIS9_EEEC1Ev @810
    _ZN5boost7archive6detail11oserializerINS0_15binary_oarchiveESt6vectorISt4pairIN4Core7FMTmaskENS6_7FMTspecEESaIS9_EEEC2Ev @811
    _ZN5boost7archive6detail11oserializerINS0_15binary_oarchiveESt6vectorISt4pairIN4Core7FMTmaskES4_IiSaIiEEESaISA_EEEC1Ev @812
    _ZN5boost7archive6detail11oserializerINS0_15binary_oarchiveESt6vectorISt4pairIN4Core7FMTmaskES4_IiSaIiEEESaISA_EEEC2Ev @813
    _ZN5boost7archive6detail11oserializerINS0_15binary_oarchiveESt6vectorISt4pairIN4Core7FMTmaskEiESaIS8_EEEC1Ev @814
    _ZN5boost7archive6detail11oserializerINS0_15binary_oarchiveESt6vectorISt4pairIN4Core7FMTmaskEiESaIS8_EEEC2Ev @815
    _ZN5boost7archive6detail11oserializerINS0_15binary_oarchiveESt6vectorIbSaIbEEEC1Ev @816
    _ZN5boost7archive6detail11oserializerINS0_15binary_oarchiveESt6vectorIbSaIbEEEC2Ev @817
    _ZN5boost7archive6detail11oserializerINS0_15binary_oarchiveESt6vectorIdSaIdEEEC1Ev @818
    _ZN5boost7archive6detail11oserializerINS0_15binary_oarchiveESt6vectorIdSaIdEEEC2Ev @819
    _ZN5boost7archive6detail11oserializerINS0_15binary_oarchiveESt6vectorIiSaIiEEEC1Ev @820
    _ZN5boost7archive6detail11oserializerINS0_15binary_oarchiveESt6vectorIiSaIiEEEC2Ev @821
    _ZN5boost7archive6detail11oserializerINS0_15binary_oarchiveESt6vectorImSaImEEEC1Ev @822
    _ZN5boost7archive6detail11oserializerINS0_15binary_oarchiveESt6vectorImSaImEEEC2Ev @823
    _ZNK5boost7archive6detail11iserializerINS0_15binary_iarchiveEN10Heuristics16FMToperatingareaEE16load_object_dataERNS1_14basic_iarchiveEPvj @824
    _ZNK5boost7archive6detail11iserializerINS0_15binary_iarchiveEN4Core11FMToperatorEE16load_object_dataERNS1_14basic_iarchiveEPvj @825
    _ZNK5boost7archive6detail11iserializerINS0_15binary_iarchiveEN4Core11FMTscheduleEE16load_object_dataERNS1_14basic_iarchiveEPvj @826
    _ZNK5boost7archive6detail11iserializerINS0_15binary_iarchiveEN4Core12FMTageboundsEE16load_object_dataERNS1_14basic_iarchiveEPvj @827
    _ZNK5boost7archive6detail11iserializerINS0_15binary_iarchiveEN4Core12FMTlifespansEE16load_object_dataERNS1_14basic_iarchiveEPvj @828
    _ZNK5boost7archive6detail11iserializerINS0_15binary_iarchiveEN4Core12FMTperboundsEE16load_object_dataERNS1_14basic_iarchiveEPvj @829
    _ZNK5boost7archive6detail11iserializerINS0_15binary_iarchiveEN4Core12FMTyldboundsEE16load_object_dataERNS1_14basic_iarchiveEPvj @830
    _ZNK5boost7archive6detail11iserializerINS0_15binary_iarchiveEN4Core13FMTconstraintEE16load_object_dataERNS1_14basic_iarchiveEPvj @831
    _ZNK5boost7archive6detail11iserializerINS0_15binary_iarchiveEN4Core13FMTlockboundsEE16load_object_dataERNS1_14basic_iarchiveEPvj @832
    _ZNK5boost7archive6detail11iserializerINS0_15binary_iarchiveEN4Core13FMTmaskfilterEE16load_object_dataERNS1_14basic_iarchiveEPvj @833
    _ZNK5boost7archive6detail11iserializerINS0_15binary_iarchiveEN4Core13FMTtransitionEE16load_object_dataERNS1_14basic_iarchiveEPvj @834
    _ZNK5boost7archive6detail11iserializerINS0_15binary_iarchiveEN4Core14FMTdevelopmentEE16load_object_dataERNS1_14basic_iarchiveEPvj @835
    _ZNK5boost7archive6detail11iserializerINS0_15binary_iarchiveEN4Core15FMToutputsourceEE16load_object_dataERNS1_14basic_iarchiveEPvj @836
    _ZNK5boost7archive6detail11iserializerINS0_15binary_iarchiveEN4Core15FMTyieldhandlerEE16load_object_dataERNS1_14basic_iarchiveEPvj @837
    _ZNK5boost7archive6detail11iserializerINS0_15binary_iarchiveEN4Core17FMTtransitionmaskEE16load_object_dataERNS1_14basic_iarchiveEPvj @838
    _ZNK5boost7archive6detail11iserializerINS0_15binary_iarchiveEN4Core20FMTactualdevelopmentEE16load_object_dataERNS1_14basic_iarchiveEPvj @839
    _ZNK5boost7archive6detail11iserializerINS0_15binary_iarchiveEN4Core7FMTdataEE16load_object_dataERNS1_14basic_iarchiveEPvj @840
    _ZNK5boost7archive6detail11iserializerINS0_15binary_iarchiveEN4Core7FMTforkEE16load_object_dataERNS1_14basic_iarchiveEPvj @841
    _ZNK5boost7archive6detail11iserializerINS0_15binary_iarchiveEN4Core7FMTlistINS4_15FMTyieldhandlerEEEE16load_object_dataERNS1_14basic_iarchiveEPvj @842
    _ZNK5boost7archive6detail11iserializerINS0_15binary_iarchiveEN4Core7FMTlistINS4_7FMTforkEEEE16load_object_dataERNS1_14basic_iarchiveEPvj @843
    _ZNK5boost7archive6detail11iserializerINS0_15binary_iarchiveEN4Core7FMTlistINS4_7FMTspecEEEE16load_object_dataERNS1_14basic_iarchiveEPvj @844
    _ZNK5boost7archive6detail11iserializerINS0_15binary_iarchiveEN4Core7FMTlistIiEEE16load_object_dataERNS1_14basic_iarchiveEPvj @845
    _ZNK5boost7archive6detail11iserializerINS0_15binary_iarchiveEN4Core7FMTmaskEE16load_object_dataERNS1_14basic_iarchiveEPvj @846
    _ZNK5boost7archive6detail11iserializerINS0_15binary_iarchiveEN4Core7FMTspecEE16load_object_dataERNS1_14basic_iarchiveEPvj @847
    _ZNK5boost7archive6detail11iserializerINS0_15binary_iarchiveEN4Core8FMTthemeEE16load_object_dataERNS1_14basic_iarchiveEPvj @848
    _ZNK5boost7archive6detail11iserializerINS0_15binary_iarchiveEN4Core9FMTactionEE16load_object_dataERNS1_14basic_iarchiveEPvj @849
    _ZNK5boost7archive6detail11iserializerINS0_15binary_iarchiveEN4Core9FMTboundsIdEEE16load_object_dataERNS1_14basic_iarchiveEPvj @850
    _ZNK5boost7archive6detail11iserializerINS0_15binary_iarchiveEN4Core9FMTboundsIiEEE16load_object_dataERNS1_14basic_iarchiveEPvj @851
    _ZNK5boost7archive6detail11iserializerINS0_15binary_iarchiveEN4Core9FMToutputEE16load_object_dataERNS1_14basic_iarchiveEPvj @852
    _ZNK5boost7archive6detail11iserializerINS0_15binary_iarchiveEN4Core9FMTyieldsEE16load_object_dataERNS1_14basic_iarchiveEPvj @853
    _ZNK5boost7archive6detail11iserializerINS0_15binary_iarchiveEN5Graph13FMTgraphstatsEE16load_object_dataERNS1_14basic_iarchiveEPvj @854
    _ZNK5boost7archive6detail11iserializerINS0_15binary_iarchiveEN5Graph17FMTedgepropertiesEE16load_object_dataERNS1_14basic_iarchiveEPvj @855
    _ZNK5boost7archive6detail11iserializerINS0_15binary_iarchiveEN5Graph19FMTvertexpropertiesEE16load_object_dataERNS1_14basic_iarchiveEPvj @856
    _ZNK5boost7archive6detail11iserializerINS0_15binary_iarchiveEN5Graph8FMTgraphEE16load_object_dataERNS1_14basic_iarchiveEPvj @857
    _ZNK5boost7archive6detail11iserializerINS0_15binary_iarchiveEN6Models10FMTlpmodelEE16load_object_dataERNS1_14basic_iarchiveEPvj @858
    _ZNK5boost7archive6detail11iserializerINS0_15binary_iarchiveEN6Models11FMTlpsolverEE16load_object_dataERNS1_14basic_iarchiveEPvj @859
    _ZNK5boost7archive6detail11iserializerINS0_15binary_iarchiveEN6Models11FMTnssmodelEE16load_object_dataERNS1_14basic_iarchiveEPvj @860
    _ZNK5boost7archive6detail11iserializerINS0_15binary_iarchiveEN6Models11FMTsesmodelEE16load_object_dataERNS1_14basic_iarchiveEPvj @861
    _ZNK5boost7archive6detail11iserializerINS0_15binary_iarchiveEN6Models21FMTserializablematrixEE16load_object_dataERNS1_14basic_iarchiveEPvj @862
    _ZNK5boost7archive6detail11iserializerINS0_15binary_iarchiveEN6Models8FMTmodelEE16load_object_dataERNS1_14basic_iarchiveEPvj @863
    _ZNK5boost7archive6detail11iserializerINS0_15binary_iarchiveEN7Spatial11FMTseseventIN4Core14FMTdevelopmentEEEE16load_object_dataERNS1_14basic_iarchiveEPvj @864
    _ZNK5boost7archive6detail11iserializerINS0_15binary_iarchiveEN7Spatial13FMTcoordinateEE16load_object_dataERNS1_14basic_iarchiveEPvj @865
    _ZNK5boost7archive6detail11iserializerINS0_15binary_iarchiveEN7Spatial16FMTspatialactionEE16load_object_dataERNS1_14basic_iarchiveEPvj @866
    _ZNK5boost7archive6detail11iserializerINS0_15binary_iarchiveEN7Spatial19FMTdisturbancestackEE16load_object_dataERNS1_14basic_iarchiveEPvj @867
    _ZNK5boost7archive6detail11iserializerINS0_15binary_iarchiveEN7Spatial8FMTeventEE16load_object_dataERNS1_14basic_iarchiveEPvj @868
    _ZNK5boost7archive6detail11iserializerINS0_15binary_iarchiveEN7Spatial8FMTlayerIN4Core14FMTdevelopmentEEEE16load_object_dataERNS1_14basic_iarchiveEPvj @869
    _ZNK5boost7archive6detail11iserializerINS0_15binary_iarchiveEN7Spatial9FMTforestEE16load_object_dataERNS1_14basic_iarchiveEPvj @870
    _ZNK5boost7archive6detail11iserializerINS0_15binary_iarchiveENS_11no_propertyEE16load_object_dataERNS1_14basic_iarchiveEPvj @871
    _ZNK5boost7archive6detail11iserializerINS0_15binary_iarchiveENS_14adjacency_listINS_5listSES5_NS_14bidirectionalSEN5Graph19FMTvertexpropertiesENS7_17FMTedgepropertiesENS_11no_propertyES5_EEE16load_object_dataERNS1_14basic_iarchiveEPvj @872
    _ZNK5boost7archive6detail11iserializerINS0_15binary_iarchiveENS_14dynamic_bitsetImSaImEEEE16load_object_dataERNS1_14basic_iarchiveEPvj @873
    _ZNK5boost7archive6detail11iserializerINS0_15binary_iarchiveESt10unique_ptrIN4Core14FMTdevelopmentESt14default_deleteIS6_EEE16load_object_dataERNS1_14basic_iarchiveEPvj @874
    _ZNK5boost7archive6detail11iserializerINS0_15binary_iarchiveESt13unordered_mapImSt6vectorIS5_IiSaIiEESaIS7_EESt4hashImESt8equal_toImESaISt4pairIKmS9_EEEE16load_object_dataERNS1_14basic_iarchiveEPvj @875
    _ZNK5boost7archive6detail11iserializerINS0_15binary_iarchiveESt3mapIN4Core14FMTdevelopmentESt6vectorIdSaIdEESt4lessIS6_ESaISt4pairIKS6_S9_EEEE16load_object_dataERNS1_14basic_iarchiveEPvj @876
    _ZNK5boost7archive6detail11iserializerINS0_15binary_iarchiveESt3mapIN4Core9FMTactionES4_INS5_14FMTdevelopmentESt6vectorIdSaIdEESt4lessIS7_ESaISt4pairIKS7_SA_EEESB_IS6_ESaISD_IKS6_SH_EEEE16load_object_dataERNS1_14basic_iarchiveEPvj @877
    _ZNK5boost7archive6detail11iserializerINS0_15binary_iarchiveESt3mapIN7Spatial13FMTcoordinateEN4Core14FMTdevelopmentESt4lessIS6_ESaISt4pairIKS6_S8_EEEE16load_object_dataERNS1_14basic_iarchiveEPvj @878
    _ZNK5boost7archive6detail11iserializerINS0_15binary_iarchiveESt3mapISsN4Core12FMTyldboundsESt4lessISsESaISt4pairIKSsS6_EEEE16load_object_dataERNS1_14basic_iarchiveEPvj @879
    _ZNK5boost7archive6detail11iserializerINS0_15binary_iarchiveESt3mapISsN4Core7FMTdataESt4lessISsESaISt4pairIKSsS6_EEEE16load_object_dataERNS1_14basic_iarchiveEPvj @880
    _ZNK5boost7archive6detail11iserializerINS0_15binary_iarchiveESt3mapISsS4_ISsdSt4lessISsESaISt4pairIKSsdEEES6_SaIS7_IS8_SB_EEEE16load_object_dataERNS1_14basic_iarchiveEPvj @881
    _ZNK5boost7archive6detail11iserializerINS0_15binary_iarchiveESt3mapISsSsSt4lessISsESaISt4pairIKSsSsEEEE16load_object_dataERNS1_14basic_iarchiveEPvj @882
    _ZNK5boost7archive6detail11iserializerINS0_15binary_iarchiveESt3mapISsSt6vectorIN7Spatial11FMTseseventIN4Core14FMTdevelopmentEEESaISA_EESt4lessISsESaISt4pairIKSsSC_EEEE16load_object_dataERNS1_14basic_iarchiveEPvj @883
    _ZNK5boost7archive6detail11iserializerINS0_15binary_iarchiveESt3mapISsSt6vectorISsSaISsEESt4lessISsESaISt4pairIKSsS7_EEEE16load_object_dataERNS1_14basic_iarchiveEPvj @884
    _ZNK5boost7archive6detail11iserializerINS0_15binary_iarchiveESt3mapISsdSt4lessISsESaISt4pairIKSsdEEEE16load_object_dataERNS1_14basic_iarchiveEPvj @885
    _ZNK5boost7archive6detail11iserializerINS0_15binary_iarchiveESt3setIN7Spatial13FMTcoordinateESt4lessIS6_ESaIS6_EEE16load_object_dataERNS1_14basic_iarchiveEPvj @886
    _ZNK5boost7archive6detail11iserializerINS0_15binary_iarchiveESt4pairIKN4Core14FMTdevelopmentESt6vectorIdSaIdEEEE16load_object_dataERNS1_14basic_iarchiveEPvj @887
    _ZNK5boost7archive6detail11iserializerINS0_15binary_iarchiveESt4pairIKN4Core9FMTactionESt3mapINS5_14FMTdevelopmentESt6vectorIdSaIdEESt4lessIS9_ESaIS4_IKS9_SC_EEEEE16load_object_dataERNS1_14basic_iarchiveEPvj @888
    _ZNK5boost7archive6detail11iserializerINS0_15binary_iarchiveESt4pairIKN7Spatial13FMTcoordinateEN4Core14FMTdevelopmentEEE16load_object_dataERNS1_14basic_iarchiveEPvj @889
    _ZNK5boost7archive6detail11iserializerINS0_15binary_iarchiveESt4pairIKSsN4Core12FMTyldboundsEEE16load_object_dataERNS1_14basic_iarchiveEPvj @890
    _ZNK5boost7archive6detail11iserializerINS0_15binary_iarchiveESt4pairIKSsN4Core7FMTdataEEE16load_object_dataERNS1_14basic_iarchiveEPvj @891
    _ZNK5boost7archive6detail11iserializerINS0_15binary_iarchiveESt4pairIKSsSsEE16load_object_dataERNS1_14basic_iarchiveEPvj @892
    _ZNK5boost7archive6detail11iserializerINS0_15binary_iarchiveESt4pairIKSsSt3mapISsdSt4lessISsESaIS4_IS5_dEEEEE16load_object_dataERNS1_14basic_iarchiveEPvj @893
    _ZNK5boost7archive6detail11iserializerINS0_15binary_iarchiveESt4pairIKSsSt6vectorIN7Spatial11FMTseseventIN4Core14FMTdevelopmentEEESaISB_EEEE16load_object_dataERNS1_14basic_iarchiveEPvj @894
    _ZNK5boost7archive6detail11iserializerINS0_15binary_iarchiveESt4pairIKSsSt6vectorISsSaISsEEEE16load_object_dataERNS1_14basic_iarchiveEPvj @895
    _ZNK5boost7archive6detail11iserializerINS0_15binary_iarchiveESt4pairIKSsdEE16load_object_dataERNS1_14basic_iarchiveEPvj @896
    _ZNK5boost7archive6detail11iserializerINS0_15binary_iarchiveESt4pairIKmSt6vectorIS6_IiSaIiEESaIS8_EEEE16load_object_dataERNS1_14basic_iarchiveEPvj @897
    _ZNK5boost7archive6detail11iserializerINS0_15binary_iarchiveESt4pairIN4Core7FMTmaskENS5_15FMTyieldhandlerEEE16load_object_dataERNS1_14basic_iarchiveEPvj @898
    _ZNK5boost7archive6detail11iserializerINS0_15binary_iarchiveESt4pairIN4Core7FMTmaskENS5_7FMTforkEEE16load_object_dataERNS1_14basic_iarchiveEPvj @899
    _ZNK5boost7archive6detail11iserializerINS0_15binary_iarchiveESt4pairIN4Core7FMTmaskENS5_7FMTspecEEE16load_object_dataERNS1_14basic_iarchiveEPvj @900
    _ZNK5boost7archive6detail11iserializerINS0_15binary_iarchiveESt4pairIN4Core7FMTmaskESt6vectorIiSaIiEEEE16load_object_dataERNS1_14basic_iarchiveEPvj @901
    _ZNK5boost7archive6detail11iserializerINS0_15binary_iarchiveESt4pairIN4Core7FMTmaskEiEE16load_object_dataERNS1_14basic_iarchiveEPvj @902
    _ZNK5boost7archive6detail11iserializerINS0_15binary_iarchiveESt6vectorIN4Core11FMToperatorESaIS6_EEE16load_object_dataERNS1_14basic_iarchiveEPvj @903
    _ZNK5boost7archive6detail11iserializerINS0_15binary_iarchiveESt6vectorIN4Core11FMTscheduleESaIS6_EEE16load_object_dataERNS1_14basic_iarchiveEPvj @904
    _ZNK5boost7archive6detail11iserializerINS0_15binary_iarchiveESt6vectorIN4Core13FMTconstraintESaIS6_EEE16load_object_dataERNS1_14basic_iarchiveEPvj @905
    _ZNK5boost7archive6detail11iserializerINS0_15binary_iarchiveESt6vectorIN4Core13FMTtransitionESaIS6_EEE16load_object_dataERNS1_14basic_iarchiveEPvj @906
    _ZNK5boost7archive6detail11iserializerINS0_15binary_iarchiveESt6vectorIN4Core15FMToutputsourceESaIS6_EEE16load_object_dataERNS1_14basic_iarchiveEPvj @907
    _ZNK5boost7archive6detail11iserializerINS0_15binary_iarchiveESt6vectorIN4Core17FMTtransitionmaskESaIS6_EEE16load_object_dataERNS1_14basic_iarchiveEPvj @908
    _ZNK5boost7archive6detail11iserializerINS0_15binary_iarchiveESt6vectorIN4Core20FMTactualdevelopmentESaIS6_EEE16load_object_dataERNS1_14basic_iarchiveEPvj @909
    _ZNK5boost7archive6detail11iserializerINS0_15binary_iarchiveESt6vectorIN4Core7FMTmaskESaIS6_EEE16load_object_dataERNS1_14basic_iarchiveEPvj @910
    _ZNK5boost7archive6detail11iserializerINS0_15binary_iarchiveESt6vectorIN4Core8FMTthemeESaIS6_EEE16load_object_dataERNS1_14basic_iarchiveEPvj @911
    _ZNK5boost7archive6detail11iserializerINS0_15binary_iarchiveESt6vectorIN4Core9FMTactionESaIS6_EEE16load_object_dataERNS1_14basic_iarchiveEPvj @912
    _ZNK5boost7archive6detail11iserializerINS0_15binary_iarchiveESt6vectorIN4Core9FMToutputESaIS6_EEE16load_object_dataERNS1_14basic_iarchiveEPvj @913
    _ZNK5boost7archive6detail11iserializerINS0_15binary_iarchiveESt6vectorIN7Spatial11FMTseseventIN4Core14FMTdevelopmentEEESaIS9_EEE16load_object_dataERNS1_14basic_iarchiveEPvj @914
    _ZNK5boost7archive6detail11iserializerINS0_15binary_iarchiveESt6vectorIN7Spatial13FMTcoordinateESaIS6_EEE16load_object_dataERNS1_14basic_iarchiveEPvj @915
    _ZNK5boost7archive6detail11iserializerINS0_15binary_iarchiveESt6vectorIN7Spatial16FMTspatialactionESaIS6_EEE16load_object_dataERNS1_14basic_iarchiveEPvj @916
    _ZNK5boost7archive6detail11iserializerINS0_15binary_iarchiveESt6vectorIS4_IiSaIiEESaIS6_EEE16load_object_dataERNS1_14basic_iarchiveEPvj @917
    _ZNK5boost7archive6detail11iserializerINS0_15binary_iarchiveESt6vectorISsSaISsEEE16load_object_dataERNS1_14basic_iarchiveEPvj @918
    _ZNK5boost7archive6detail11iserializerINS0_15binary_iarchiveESt6vectorISt13unordered_mapImS4_IS4_IiSaIiEESaIS7_EESt4hashImESt8equal_toImESaISt4pairIKmS9_EEESaISI_EEE16load_object_dataERNS1_14basic_iarchiveEPvj @919
    _ZNK5boost7archive6detail11iserializerINS0_15binary_iarchiveESt6vectorISt3mapISsS4_IN7Spatial11FMTseseventIN4Core14FMTdevelopmentEEESaISA_EESt4lessISsESaISt4pairIKSsSC_EEESaISJ_EEE16load_object_dataERNS1_14basic_iarchiveEPvj @920
    _ZNK5boost7archive6detail11iserializerINS0_15binary_iarchiveESt6vectorISt4pairIN4Core7FMTmaskENS6_15FMTyieldhandlerEESaIS9_EEE16load_object_dataERNS1_14basic_iarchiveEPvj @921
    _ZNK5boost7archive6detail11iserializerINS0_15binary_iarchiveESt6vectorISt4pairIN4Core7FMTmaskENS6_7FMTforkEESaIS9_EEE16load_object_dataERNS1_14basic_iarchiveEPvj @922
    _ZNK5boost7archive6detail11iserializerINS0_15binary_iarchiveESt6vectorISt4pairIN4Core7FMTmaskENS6_7FMTspecEESaIS9_EEE16load_object_dataERNS1_14basic_iarchiveEPvj @923
    _ZNK5boost7archive6detail11iserializerINS0_15binary_iarchiveESt6vectorISt4pairIN4Core7FMTmaskES4_IiSaIiEEESaISA_EEE16load_object_dataERNS1_14basic_iarchiveEPvj @924
    _ZNK5boost7archive6detail11iserializerINS0_15binary_iarchiveESt6vectorISt4pairIN4Core7FMTmaskEiESaIS8_EEE16load_object_dataERNS1_14basic_iarchiveEPvj @925
    _ZNK5boost7archive6detail11iserializerINS0_15binary_iarchiveESt6vectorIbSaIbEEE16load_object_dataERNS1_14basic_iarchiveEPvj @926
    _ZNK5boost7archive6detail11iserializerINS0_15binary_iarchiveESt6vectorIdSaIdEEE16load_object_dataERNS1_14basic_iarchiveEPvj @927
    _ZNK5boost7archive6detail11iserializerINS0_15binary_iarchiveESt6vectorIiSaIiEEE16load_object_dataERNS1_14basic_iarchiveEPvj @928
    _ZNK5boost7archive6detail11iserializerINS0_15binary_iarchiveESt6vectorImSaImEEE16load_object_dataERNS1_14basic_iarchiveEPvj @929
    _ZNK5boost7archive6detail11oserializerINS0_15binary_oarchiveEN10Heuristics16FMToperatingareaEE16save_object_dataERNS1_14basic_oarchiveEPKv @930
    _ZNK5boost7archive6detail11oserializerINS0_15binary_oarchiveEN4Core11FMToperatorEE16save_object_dataERNS1_14basic_oarchiveEPKv @931
    _ZNK5boost7archive6detail11oserializerINS0_15binary_oarchiveEN4Core11FMTscheduleEE16save_object_dataERNS1_14basic_oarchiveEPKv @932
    _ZNK5boost7archive6detail11oserializerINS0_15binary_oarchiveEN4Core12FMTageboundsEE16save_object_dataERNS1_14basic_oarchiveEPKv @933
    _ZNK5boost7archive6detail11oserializerINS0_15binary_oarchiveEN4Core12FMTlifespansEE16save_object_dataERNS1_14basic_oarchiveEPKv @934
    _ZNK5boost7archive6detail11oserializerINS0_15binary_oarchiveEN4Core12FMTperboundsEE16save_object_dataERNS1_14basic_oarchiveEPKv @935
    _ZNK5boost7archive6detail11oserializerINS0_15binary_oarchiveEN4Core12FMTyldboundsEE16save_object_dataERNS1_14basic_oarchiveEPKv @936
    _ZNK5boost7archive6detail11oserializerINS0_15binary_oarchiveEN4Core13FMTconstraintEE16save_object_dataERNS1_14basic_oarchiveEPKv @937
    _ZNK5boost7archive6detail11oserializerINS0_15binary_oarchiveEN4Core13FMTlockboundsEE16save_object_dataERNS1_14basic_oarchiveEPKv @938
    _ZNK5boost7archive6detail11oserializerINS0_15binary_oarchiveEN4Core13FMTmaskfilterEE16save_object_dataERNS1_14basic_oarchiveEPKv @939
    _ZNK5boost7archive6detail11oserializerINS0_15binary_oarchiveEN4Core13FMTtransitionEE16save_object_dataERNS1_14basic_oarchiveEPKv @940
    _ZNK5boost7archive6detail11oserializerINS0_15binary_oarchiveEN4Core14FMTdevelopmentEE16save_object_dataERNS1_14basic_oarchiveEPKv @941
    _ZNK5boost7archive6detail11oserializerINS0_15binary_oarchiveEN4Core15FMToutputsourceEE16save_object_dataERNS1_14basic_oarchiveEPKv @942
    _ZNK5boost7archive6detail11oserializerINS0_15binary_oarchiveEN4Core15FMTyieldhandlerEE16save_object_dataERNS1_14basic_oarchiveEPKv @943
    _ZNK5boost7archive6detail11oserializerINS0_15binary_oarchiveEN4Core17FMTtransitionmaskEE16save_object_dataERNS1_14basic_oarchiveEPKv @944
    _ZNK5boost7archive6detail11oserializerINS0_15binary_oarchiveEN4Core20FMTactualdevelopmentEE16save_object_dataERNS1_14basic_oarchiveEPKv @945
    _ZNK5boost7archive6detail11oserializerINS0_15binary_oarchiveEN4Core7FMTdataEE16save_object_dataERNS1_14basic_oarchiveEPKv @946
    _ZNK5boost7archive6detail11oserializerINS0_15binary_oarchiveEN4Core7FMTforkEE16save_object_dataERNS1_14basic_oarchiveEPKv @947
    _ZNK5boost7archive6detail11oserializerINS0_15binary_oarchiveEN4Core7FMTlistINS4_15FMTyieldhandlerEEEE16save_object_dataERNS1_14basic_oarchiveEPKv @948
    _ZNK5boost7archive6detail11oserializerINS0_15binary_oarchiveEN4Core7FMTlistINS4_7FMTforkEEEE16save_object_dataERNS1_14basic_oarchiveEPKv @949
    _ZNK5boost7archive6detail11oserializerINS0_15binary_oarchiveEN4Core7FMTlistINS4_7FMTspecEEEE16save_object_dataERNS1_14basic_oarchiveEPKv @950
    _ZNK5boost7archive6detail11oserializerINS0_15binary_oarchiveEN4Core7FMTlistIiEEE16save_object_dataERNS1_14basic_oarchiveEPKv @951
    _ZNK5boost7archive6detail11oserializerINS0_15binary_oarchiveEN4Core7FMTmaskEE16save_object_dataERNS1_14basic_oarchiveEPKv @952
    _ZNK5boost7archive6detail11oserializerINS0_15binary_oarchiveEN4Core7FMTspecEE16save_object_dataERNS1_14basic_oarchiveEPKv @953
    _ZNK5boost7archive6detail11oserializerINS0_15binary_oarchiveEN4Core8FMTthemeEE16save_object_dataERNS1_14basic_oarchiveEPKv @954
    _ZNK5boost7archive6detail11oserializerINS0_15binary_oarchiveEN4Core9FMTactionEE16save_object_dataERNS1_14basic_oarchiveEPKv @955
    _ZNK5boost7archive6detail11oserializerINS0_15binary_oarchiveEN4Core9FMTboundsIdEEE16save_object_dataERNS1_14basic_oarchiveEPKv @956
    _ZNK5boost7archive6detail11oserializerINS0_15binary_oarchiveEN4Core9FMTboundsIiEEE16save_object_dataERNS1_14basic_oarchiveEPKv @957
    _ZNK5boost7archive6detail11oserializerINS0_15binary_oarchiveEN4Core9FMToutputEE16save_object_dataERNS1_14basic_oarchiveEPKv @958
    _ZNK5boost7archive6detail11oserializerINS0_15binary_oarchiveEN4Core9FMTyieldsEE16save_object_dataERNS1_14basic_oarchiveEPKv @959
    _ZNK5boost7archive6detail11oserializerINS0_15binary_oarchiveEN5Graph13FMTgraphstatsEE16save_object_dataERNS1_14basic_oarchiveEPKv @960
    _ZNK5boost7archive6detail11oserializerINS0_15binary_oarchiveEN5Graph17FMTedgepropertiesEE16save_object_dataERNS1_14basic_oarchiveEPKv @961
    _ZNK5boost7archive6detail11oserializerINS0_15binary_oarchiveEN5Graph19FMTvertexpropertiesEE16save_object_dataERNS1_14basic_oarchiveEPKv @962
    _ZNK5boost7archive6detail11oserializerINS0_15binary_oarchiveEN5Graph8FMTgraphEE16save_object_dataERNS1_14basic_oarchiveEPKv @963
    _ZNK5boost7archive6detail11oserializerINS0_15binary_oarchiveEN6Models10FMTlpmodelEE16save_object_dataERNS1_14basic_oarchiveEPKv @964
    _ZNK5boost7archive6detail11oserializerINS0_15binary_oarchiveEN6Models11FMTlpsolverEE16save_object_dataERNS1_14basic_oarchiveEPKv @965
    _ZNK5boost7archive6detail11oserializerINS0_15binary_oarchiveEN6Models11FMTnssmodelEE16save_object_dataERNS1_14basic_oarchiveEPKv @966
    _ZNK5boost7archive6detail11oserializerINS0_15binary_oarchiveEN6Models11FMTsesmodelEE16save_object_dataERNS1_14basic_oarchiveEPKv @967
    _ZNK5boost7archive6detail11oserializerINS0_15binary_oarchiveEN6Models21FMTserializablematrixEE16save_object_dataERNS1_14basic_oarchiveEPKv @968
    _ZNK5boost7archive6detail11oserializerINS0_15binary_oarchiveEN6Models8FMTmodelEE16save_object_dataERNS1_14basic_oarchiveEPKv @969
    _ZNK5boost7archive6detail11oserializerINS0_15binary_oarchiveEN7Spatial11FMTseseventIN4Core14FMTdevelopmentEEEE16save_object_dataERNS1_14basic_oarchiveEPKv @970
    _ZNK5boost7archive6detail11oserializerINS0_15binary_oarchiveEN7Spatial13FMTcoordinateEE16save_object_dataERNS1_14basic_oarchiveEPKv @971
    _ZNK5boost7archive6detail11oserializerINS0_15binary_oarchiveEN7Spatial16FMTspatialactionEE16save_object_dataERNS1_14basic_oarchiveEPKv @972
    _ZNK5boost7archive6detail11oserializerINS0_15binary_oarchiveEN7Spatial19FMTdisturbancestackEE16save_object_dataERNS1_14basic_oarchiveEPKv @973
    _ZNK5boost7archive6detail11oserializerINS0_15binary_oarchiveEN7Spatial8FMTeventEE16save_object_dataERNS1_14basic_oarchiveEPKv @974
    _ZNK5boost7archive6detail11oserializerINS0_15binary_oarchiveEN7Spatial8FMTlayerIN4Core14FMTdevelopmentEEEE16save_object_dataERNS1_14basic_oarchiveEPKv @975
    _ZNK5boost7archive6detail11oserializerINS0_15binary_oarchiveEN7Spatial9FMTforestEE16save_object_dataERNS1_14basic_oarchiveEPKv @976
    _ZNK5boost7archive6detail11oserializerINS0_15binary_oarchiveENS_11no_propertyEE16save_object_dataERNS1_14basic_oarchiveEPKv @977
    _ZNK5boost7archive6detail11oserializerINS0_15binary_oarchiveENS_14adjacency_listINS_5listSES5_NS_14bidirectionalSEN5Graph19FMTvertexpropertiesENS7_17FMTedgepropertiesENS_11no_propertyES5_EEE16save_object_dataERNS1_14basic_oarchiveEPKv @978
    _ZNK5boost7archive6detail11oserializerINS0_15binary_oarchiveENS_14dynamic_bitsetImSaImEEEE16save_object_dataERNS1_14basic_oarchiveEPKv @979
    _ZNK5boost7archive6detail11oserializerINS0_15binary_oarchiveESt10unique_ptrIN4Core14FMTdevelopmentESt14default_deleteIS6_EEE16save_object_dataERNS1_14basic_oarchiveEPKv @980
    _ZNK5boost7archive6detail11oserializerINS0_15binary_oarchiveESt13unordered_mapImSt6vectorIS5_IiSaIiEESaIS7_EESt4hashImESt8equal_toImESaISt4pairIKmS9_EEEE16save_object_dataERNS1_14basic_oarchiveEPKv @981
    _ZNK5boost7archive6detail11oserializerINS0_15binary_oarchiveESt3mapIN4Core14FMTdevelopmentESt6vectorIdSaIdEESt4lessIS6_ESaISt4pairIKS6_S9_EEEE16save_object_dataERNS1_14basic_oarchiveEPKv @982
    _ZNK5boost7archive6detail11oserializerINS0_15binary_oarchiveESt3mapIN4Core9FMTactionES4_INS5_14FMTdevelopmentESt6vectorIdSaIdEESt4lessIS7_ESaISt4pairIKS7_SA_EEESB_IS6_ESaISD_IKS6_SH_EEEE16save_object_dataERNS1_14basic_oarchiveEPKv @983
    _ZNK5boost7archive6detail11oserializerINS0_15binary_oarchiveESt3mapIN7Spatial13FMTcoordinateEN4Core14FMTdevelopmentESt4lessIS6_ESaISt4pairIKS6_S8_EEEE16save_object_dataERNS1_14basic_oarchiveEPKv @984
    _ZNK5boost7archive6detail11oserializerINS0_15binary_oarchiveESt3mapISsN4Core12FMTyldboundsESt4lessISsESaISt4pairIKSsS6_EEEE16save_object_dataERNS1_14basic_oarchiveEPKv @985
    _ZNK5boost7archive6detail11oserializerINS0_15binary_oarchiveESt3mapISsN4Core7FMTdataESt4lessISsESaISt4pairIKSsS6_EEEE16save_object_dataERNS1_14basic_oarchiveEPKv @986
    _ZNK5boost7archive6detail11oserializerINS0_15binary_oarchiveESt3mapISsS4_ISsdSt4lessISsESaISt4pairIKSsdEEES6_SaIS7_IS8_SB_EEEE16save_object_dataERNS1_14basic_oarchiveEPKv @987
    _ZNK5boost7archive6detail11oserializerINS0_15binary_oarchiveESt3mapISsSsSt4lessISsESaISt4pairIKSsSsEEEE16save_object_dataERNS1_14basic_oarchiveEPKv @988
    _ZNK5boost7archive6detail11oserializerINS0_15binary_oarchiveESt3mapISsSt6vectorIN7Spatial11FMTseseventIN4Core14FMTdevelopmentEEESaISA_EESt4lessISsESaISt4pairIKSsSC_EEEE16save_object_dataERNS1_14basic_oarchiveEPKv @989
    _ZNK5boost7archive6detail11oserializerINS0_15binary_oarchiveESt3mapISsSt6vectorISsSaISsEESt4lessISsESaISt4pairIKSsS7_EEEE16save_object_dataERNS1_14basic_oarchiveEPKv @990
    _ZNK5boost7archive6detail11oserializerINS0_15binary_oarchiveESt3mapISsdSt4lessISsESaISt4pairIKSsdEEEE16save_object_dataERNS1_14basic_oarchiveEPKv @991
    _ZNK5boost7archive6detail11oserializerINS0_15binary_oarchiveESt3setIN7Spatial13FMTcoordinateESt4lessIS6_ESaIS6_EEE16save_object_dataERNS1_14basic_oarchiveEPKv @992
    _ZNK5boost7archive6detail11oserializerINS0_15binary_oarchiveESt4pairIKN4Core14FMTdevelopmentESt6vectorIdSaIdEEEE16save_object_dataERNS1_14basic_oarchiveEPKv @993
    _ZNK5boost7archive6detail11oserializerINS0_15binary_oarchiveESt4pairIKN4Core9FMTactionESt3mapINS5_14FMTdevelopmentESt6vectorIdSaIdEESt4lessIS9_ESaIS4_IKS9_SC_EEEEE16save_object_dataERNS1_14basic_oarchiveEPKv @994
    _ZNK5boost7archive6detail11oserializerINS0_15binary_oarchiveESt4pairIKN7Spatial13FMTcoordinateEN4Core14FMTdevelopmentEEE16save_object_dataERNS1_14basic_oarchiveEPKv @995
    _ZNK5boost7archive6detail11oserializerINS0_15binary_oarchiveESt4pairIKSsN4Core12FMTyldboundsEEE16save_object_dataERNS1_14basic_oarchiveEPKv @996
    _ZNK5boost7archive6detail11oserializerINS0_15binary_oarchiveESt4pairIKSsN4Core7FMTdataEEE16save_object_dataERNS1_14basic_oarchiveEPKv @997
    _ZNK5boost7archive6detail11oserializerINS0_15binary_oarchiveESt4pairIKSsSsEE16save_object_dataERNS1_14basic_oarchiveEPKv @998
    _ZNK5boost7archive6detail11oserializerINS0_15binary_oarchiveESt4pairIKSsSt3mapISsdSt4lessISsESaIS4_IS5_dEEEEE16save_object_dataERNS1_14basic_oarchiveEPKv @999
    _ZNK5boost7archive6detail11oserializerINS0_15binary_oarchiveESt4pairIKSsSt6vectorIN7Spatial11FMTseseventIN4Core14FMTdevelopmentEEESaISB_EEEE16save_object_dataERNS1_14basic_oarchiveEPKv @1000
    _ZNK5boost7archive6detail11oserializerINS0_15binary_oarchiveESt4pairIKSsSt6vectorISsSaISsEEEE16save_object_dataERNS1_14basic_oarchiveEPKv @1001
    _ZNK5boost7archive6detail11oserializerINS0_15binary_oarchiveESt4pairIKSsdEE16save_object_dataERNS1_14basic_oarchiveEPKv @1002
    _ZNK5boost7archive6detail11oserializerINS0_15binary_oarchiveESt4pairIKmSt6vectorIS6_IiSaIiEESaIS8_EEEE16save_object_dataERNS1_14basic_oarchiveEPKv @1003
    _ZNK5boost7archive6detail11oserializerINS0_15binary_oarchiveESt4pairIN4Core7FMTmaskENS5_15FMTyieldhandlerEEE16save_object_dataERNS1_14basic_oarchiveEPKv @1004
    _ZNK5boost7archive6detail11oserializerINS0_15binary_oarchiveESt4pairIN4Core7FMTmaskENS5_7FMTforkEEE16save_object_dataERNS1_14basic_oarchiveEPKv @1005
    _ZNK5boost7archive6detail11oserializerINS0_15binary_oarchiveESt4pairIN4Core7FMTmaskENS5_7FMTspecEEE16save_object_dataERNS1_14basic_oarchiveEPKv @1006
    _ZNK5boost7archive6detail11oserializerINS0_15binary_oarchiveESt4pairIN4Core7FMTmaskESt6vectorIiSaIiEEEE16save_object_dataERNS1_14basic_oarchiveEPKv @1007
    _ZNK5boost7archive6detail11oserializerINS0_15binary_oarchiveESt4pairIN4Core7FMTmaskEiEE16save_object_dataERNS1_14basic_oarchiveEPKv @1008
    _ZNK5boost7archive6detail11oserializerINS0_15binary_oarchiveESt6vectorIN4Core11FMToperatorESaIS6_EEE16save_object_dataERNS1_14basic_oarchiveEPKv @1009
    _ZNK5boost7archive6detail11oserializerINS0_15binary_oarchiveESt6vectorIN4Core11FMTscheduleESaIS6_EEE16save_object_dataERNS1_14basic_oarchiveEPKv @1010
    _ZNK5boost7archive6detail11oserializerINS0_15binary_oarchiveESt6vectorIN4Core13FMTconstraintESaIS6_EEE16save_object_dataERNS1_14basic_oarchiveEPKv @1011
    _ZNK5boost7archive6detail11oserializerINS0_15binary_oarchiveESt6vectorIN4Core13FMTtransitionESaIS6_EEE16save_object_dataERNS1_14basic_oarchiveEPKv @1012
    _ZNK5boost7archive6detail11oserializerINS0_15binary_oarchiveESt6vectorIN4Core15FMToutputsourceESaIS6_EEE16save_object_dataERNS1_14basic_oarchiveEPKv @1013
    _ZNK5boost7archive6detail11oserializerINS0_15binary_oarchiveESt6vectorIN4Core17FMTtransitionmaskESaIS6_EEE16save_object_dataERNS1_14basic_oarchiveEPKv @1014
    _ZNK5boost7archive6detail11oserializerINS0_15binary_oarchiveESt6vectorIN4Core20FMTactualdevelopmentESaIS6_EEE16save_object_dataERNS1_14basic_oarchiveEPKv @1015
    _ZNK5boost7archive6detail11oserializerINS0_15binary_oarchiveESt6vectorIN4Core7FMTmaskESaIS6_EEE16save_object_dataERNS1_14basic_oarchiveEPKv @1016
    _ZNK5boost7archive6detail11oserializerINS0_15binary_oarchiveESt6vectorIN4Core8FMTthemeESaIS6_EEE16save_object_dataERNS1_14basic_oarchiveEPKv @1017
    _ZNK5boost7archive6detail11oserializerINS0_15binary_oarchiveESt6vectorIN4Core9FMTactionESaIS6_EEE16save_object_dataERNS1_14basic_oarchiveEPKv @1018
    _ZNK5boost7archive6detail11oserializerINS0_15binary_oarchiveESt6vectorIN4Core9FMToutputESaIS6_EEE16save_object_dataERNS1_14basic_oarchiveEPKv @1019
    _ZNK5boost7archive6detail11oserializerINS0_15binary_oarchiveESt6vectorIN7Spatial11FMTseseventIN4Core14FMTdevelopmentEEESaIS9_EEE16save_object_dataERNS1_14basic_oarchiveEPKv @1020
    _ZNK5boost7archive6detail11oserializerINS0_15binary_oarchiveESt6vectorIN7Spatial13FMTcoordinateESaIS6_EEE16save_object_dataERNS1_14basic_oarchiveEPKv @1021
    _ZNK5boost7archive6detail11oserializerINS0_15binary_oarchiveESt6vectorIN7Spatial16FMTspatialactionESaIS6_EEE16save_object_dataERNS1_14basic_oarchiveEPKv @1022
    _ZNK5boost7archive6detail11oserializerINS0_15binary_oarchiveESt6vectorIS4_IiSaIiEESaIS6_EEE16save_object_dataERNS1_14basic_oarchiveEPKv @1023
    _ZNK5boost7archive6detail11oserializerINS0_15binary_oarchiveESt6vectorISsSaISsEEE16save_object_dataERNS1_14basic_oarchiveEPKv @1024
    _ZNK5boost7archive6detail11oserializerINS0_15binary_oarchiveESt6vectorISt13unordered_mapImS4_IS4_IiSaIiEESaIS7_EESt4hashImESt8equal_toImESaISt4pairIKmS9_EEESaISI_EEE16save_object_dataERNS1_14basic_oarchiveEPKv @1025
    _ZNK5boost7archive6detail11oserializerINS0_15binary_oarchiveESt6vectorISt3mapISsS4_IN7Spatial11FMTseseventIN4Core14FMTdevelopmentEEESaISA_EESt4lessISsESaISt4pairIKSsSC_EEESaISJ_EEE16save_object_dataERNS1_14basic_oarchiveEPKv @1026
    _ZNK5boost7archive6detail11oserializerINS0_15binary_oarchiveESt6vectorISt4pairIN4Core7FMTmaskENS6_15FMTyieldhandlerEESaIS9_EEE16save_object_dataERNS1_14basic_oarchiveEPKv @1027
    _ZNK5boost7archive6detail11oserializerINS0_15binary_oarchiveESt6vectorISt4pairIN4Core7FMTmaskENS6_7FMTforkEESaIS9_EEE16save_object_dataERNS1_14basic_oarchiveEPKv @1028
    _ZNK5boost7archive6detail11oserializerINS0_15binary_oarchiveESt6vectorISt4pairIN4Core7FMTmaskENS6_7FMTspecEESaIS9_EEE16save_object_dataERNS1_14basic_oarchiveEPKv @1029
    _ZNK5boost7archive6detail11oserializerINS0_15binary_oarchiveESt6vectorISt4pairIN4Core7FMTmaskES4_IiSaIiEEESaISA_EEE16save_object_dataERNS1_14basic_oarchiveEPKv @1030
    _ZNK5boost7archive6detail11oserializerINS0_15binary_oarchiveESt6vectorISt4pairIN4Core7FMTmaskEiESaIS8_EEE16save_object_dataERNS1_14basic_oarchiveEPKv @1031
    _ZNK5boost7archive6detail11oserializerINS0_15binary_oarchiveESt6vectorIbSaIbEEE16save_object_dataERNS1_14basic_oarchiveEPKv @1032
    _ZNK5boost7archive6detail11oserializerINS0_15binary_oarchiveESt6vectorIdSaIdEEE16save_object_dataERNS1_14basic_oarchiveEPKv @1033
    _ZNK5boost7archive6detail11oserializerINS0_15binary_oarchiveESt6vectorIiSaIiEEE16save_object_dataERNS1_14basic_oarchiveEPKv @1034
    _ZNK5boost7archive6detail11oserializerINS0_15binary_oarchiveESt6vectorImSaImEEE16save_object_dataERNS1_14basic_oarchiveEPKv @1035
    _ZNK5boost7archive6detail19pointer_iserializerINS0_15binary_iarchiveEN4Core14FMTdevelopmentEE15load_object_ptrERNS1_14basic_iarchiveEPvj @1036
    _ZNK5boost7archive6detail19pointer_iserializerINS0_15binary_iarchiveESt3mapIN7Spatial13FMTcoordinateEN4Core14FMTdevelopmentESt4lessIS6_ESaISt4pairIKS6_S8_EEEE15load_object_ptrERNS1_14basic_iarchiveEPvj @1037
    _ZNK5boost7archive6detail19pointer_oserializerINS0_15binary_oarchiveEN4Core14FMTdevelopmentEE15save_object_ptrERNS1_14basic_oarchiveEPKv @1038
    _ZNK5boost7archive6detail19pointer_oserializerINS0_15binary_oarchiveESt3mapIN7Spatial13FMTcoordinateEN4Core14FMTdevelopmentESt4lessIS6_ESaISt4pairIKS6_S8_EEEE15save_object_ptrERNS1_14basic_oarchiveEPKv @1039
    initFMT @1040
